ARM GAS  /tmp/ccqOiHbm.s 			page 1


   1              		.cpu cortex-m4
   2              		.eabi_attribute 27, 1
   3              		.eabi_attribute 28, 1
   4              		.eabi_attribute 20, 1
   5              		.eabi_attribute 21, 1
   6              		.eabi_attribute 23, 3
   7              		.eabi_attribute 24, 1
   8              		.eabi_attribute 25, 1
   9              		.eabi_attribute 26, 1
  10              		.eabi_attribute 30, 1
  11              		.eabi_attribute 34, 1
  12              		.eabi_attribute 18, 4
  13              		.file	"log.c"
  14              		.text
  15              	.Ltext0:
  16              		.cfi_sections	.debug_frame
  17              		.section	.text.WriteLog,"ax",%progbits
  18              		.align	1
  19              		.global	WriteLog
  20              		.syntax unified
  21              		.thumb
  22              		.thumb_func
  23              		.fpu fpv4-sp-d16
  25              	WriteLog:
  26              	.LFB127:
  27              		.file 1 "Platform/log.c"
   1:Platform/log.c **** #include<stdio.h>
   2:Platform/log.c **** #include <stdarg.h>
   3:Platform/log.c **** #include "log.h"
   4:Platform/log.c **** 
   5:Platform/log.c **** unsigned int debug_flag; 
   6:Platform/log.c **** 
   7:Platform/log.c **** 
   8:Platform/log.c **** unsigned int at_host_log_level = 0;
   9:Platform/log.c **** 
  10:Platform/log.c **** /**
  11:Platform/log.c ****  * Get the log level.
  12:Platform/log.c ****  */
  13:Platform/log.c **** static inline int at_host_get_log_level(void) {
  14:Platform/log.c ****     return at_host_log_level;
  15:Platform/log.c **** }
  16:Platform/log.c **** 
  17:Platform/log.c **** void WriteLog(at_host_log_level_t at_host_log_level,const char* va_alist,...)
  18:Platform/log.c **** {
  28              		.loc 1 18 0
  29              		.cfi_startproc
  30              		@ args = 4, pretend = 12, frame = 8
  31              		@ frame_needed = 0, uses_anonymous_args = 1
  32              	.LVL0:
  33 0000 0EB4     		push	{r1, r2, r3}
  34              	.LCFI0:
  35              		.cfi_def_cfa_offset 12
  36              		.cfi_offset 1, -12
  37              		.cfi_offset 2, -8
  38              		.cfi_offset 3, -4
  39 0002 10B5     		push	{r4, lr}
  40              	.LCFI1:
ARM GAS  /tmp/ccqOiHbm.s 			page 2


  41              		.cfi_def_cfa_offset 20
  42              		.cfi_offset 4, -20
  43              		.cfi_offset 14, -16
  44 0004 83B0     		sub	sp, sp, #12
  45              	.LCFI2:
  46              		.cfi_def_cfa_offset 32
  47 0006 05AB     		add	r3, sp, #20
  48 0008 53F8042B 		ldr	r2, [r3], #4
  49              	.LVL1:
  19:Platform/log.c ****     va_list args;    
  20:Platform/log.c ****     at_host_log_level_t level = at_host_log_level;
  21:Platform/log.c ****     static char log_buf[LOG_BUF_SIZE];
  22:Platform/log.c ****     int len;
  23:Platform/log.c ****     
  24:Platform/log.c ****     va_start(args ,va_alist);
  50              		.loc 1 24 0
  51 000c 0193     		str	r3, [sp, #4]
  25:Platform/log.c ****     if( debug_flag & 1 << level )    //注意&和<<优先级
  52              		.loc 1 25 0
  53 000e 0124     		movs	r4, #1
  54 0010 8440     		lsls	r4, r4, r0
  55 0012 0C4B     		ldr	r3, .L7
  56 0014 1B68     		ldr	r3, [r3]
  57 0016 1C42     		tst	r4, r3
  58 0018 08D1     		bne	.L5
  59              	.LVL2:
  60              	.L2:
  26:Platform/log.c ****     {
  27:Platform/log.c ****         len = vsnprintf(log_buf, LOG_BUF_SIZE,va_alist, args);
  28:Platform/log.c ****     }
  29:Platform/log.c ****     va_end(args);
  30:Platform/log.c **** 
  31:Platform/log.c ****    if( debug_flag & 1 << level )    //注意&和<<优先级
  61              		.loc 1 31 0
  62 001a 0A4B     		ldr	r3, .L7
  63 001c 1B68     		ldr	r3, [r3]
  64 001e 1C42     		tst	r4, r3
  65 0020 0BD1     		bne	.L6
  66              	.L1:
  32:Platform/log.c ****     {
  33:Platform/log.c ****         printf("%s\r\n",log_buf);
  34:Platform/log.c ****     }
  35:Platform/log.c **** }
  67              		.loc 1 35 0
  68 0022 03B0     		add	sp, sp, #12
  69              	.LCFI3:
  70              		.cfi_remember_state
  71              		.cfi_def_cfa_offset 20
  72              		@ sp needed
  73 0024 BDE81040 		pop	{r4, lr}
  74              	.LCFI4:
  75              		.cfi_restore 14
  76              		.cfi_restore 4
  77              		.cfi_def_cfa_offset 12
  78 0028 03B0     		add	sp, sp, #12
  79              	.LCFI5:
  80              		.cfi_restore 3
ARM GAS  /tmp/ccqOiHbm.s 			page 3


  81              		.cfi_restore 2
  82              		.cfi_restore 1
  83              		.cfi_def_cfa_offset 0
  84 002a 7047     		bx	lr
  85              	.LVL3:
  86              	.L5:
  87              	.LCFI6:
  88              		.cfi_restore_state
  27:Platform/log.c ****     }
  89              		.loc 1 27 0
  90 002c 019B     		ldr	r3, [sp, #4]
  91 002e 4FF40071 		mov	r1, #512
  92 0032 0548     		ldr	r0, .L7+4
  93              	.LVL4:
  94 0034 FFF7FEFF 		bl	vsnprintf
  95              	.LVL5:
  96 0038 EFE7     		b	.L2
  97              	.L6:
  33:Platform/log.c ****     }
  98              		.loc 1 33 0
  99 003a 0349     		ldr	r1, .L7+4
 100 003c 0348     		ldr	r0, .L7+8
 101 003e FFF7FEFF 		bl	printf
 102              	.LVL6:
 103              		.loc 1 35 0
 104 0042 EEE7     		b	.L1
 105              	.L8:
 106              		.align	2
 107              	.L7:
 108 0044 00000000 		.word	debug_flag
 109 0048 00000000 		.word	.LANCHOR0
 110 004c 00000000 		.word	.LC0
 111              		.cfi_endproc
 112              	.LFE127:
 114              		.section	.text.at_host_set_log_level,"ax",%progbits
 115              		.align	1
 116              		.global	at_host_set_log_level
 117              		.syntax unified
 118              		.thumb
 119              		.thumb_func
 120              		.fpu fpv4-sp-d16
 122              	at_host_set_log_level:
 123              	.LFB128:
  36:Platform/log.c **** 
  37:Platform/log.c **** /**
  38:Platform/log.c ****  * Set the log level.
  39:Platform/log.c ****  *
  40:Platform/log.c ****  * @param[in]  log_level  level to be set,must be one of AT_HOST_LL_NONE,AT_HOST_LL_FATAL,AT_HOST_L
  41:Platform/log.c ****  */
  42:Platform/log.c **** void at_host_set_log_level(at_host_log_level_t at_host_log_level)
  43:Platform/log.c **** {
 124              		.loc 1 43 0
 125              		.cfi_startproc
 126              		@ args = 0, pretend = 0, frame = 0
 127              		@ frame_needed = 0, uses_anonymous_args = 0
 128              		@ link register save eliminated.
 129              	.LVL7:
ARM GAS  /tmp/ccqOiHbm.s 			page 4


  44:Platform/log.c ****     if (at_host_log_level >= 1 && at_host_log_level <= AT_HOST_LL_DEBUG)
 130              		.loc 1 44 0
 131 0000 431E     		subs	r3, r0, #1
 132 0002 DBB2     		uxtb	r3, r3
 133 0004 042B     		cmp	r3, #4
 134 0006 02D9     		bls	.L12
  45:Platform/log.c ****     {
  46:Platform/log.c ****         debug_flag |= 1 << at_host_log_level;
  47:Platform/log.c ****     }
  48:Platform/log.c ****     else if(at_host_log_level == AT_HOST_LL_DEBUG +1)
 135              		.loc 1 48 0
 136 0008 0628     		cmp	r0, #6
 137 000a 08D0     		beq	.L13
 138              	.L9:
  49:Platform/log.c ****     {
  50:Platform/log.c ****         debug_flag = 255;
  51:Platform/log.c ****     }
  52:Platform/log.c **** }...
 139              		.loc 1 52 0
 140 000c 7047     		bx	lr
 141              	.L12:
  46:Platform/log.c ****         debug_flag |= 1 << at_host_log_level;
 142              		.loc 1 46 0
 143 000e 0123     		movs	r3, #1
 144 0010 03FA00F0 		lsl	r0, r3, r0
 145              	.LVL8:
 146 0014 044A     		ldr	r2, .L14
 147 0016 1368     		ldr	r3, [r2]
 148 0018 0343     		orrs	r3, r3, r0
 149 001a 1360     		str	r3, [r2]
 150 001c 7047     		bx	lr
 151              	.LVL9:
 152              	.L13:
  50:Platform/log.c ****         debug_flag = 255;
 153              		.loc 1 50 0
 154 001e 024B     		ldr	r3, .L14
 155 0020 FF22     		movs	r2, #255
 156 0022 1A60     		str	r2, [r3]
 157              		.loc 1 52 0
 158 0024 F2E7     		b	.L9
 159              	.L15:
 160 0026 00BF     		.align	2
 161              	.L14:
 162 0028 00000000 		.word	debug_flag
 163              		.cfi_endproc
 164              	.LFE128:
 166              		.global	at_host_log_level
 167              		.comm	debug_flag,4,4
 168              		.section	.bss.at_host_log_level,"aw",%nobits
 169              		.align	2
 172              	at_host_log_level:
 173 0000 00000000 		.space	4
 174              		.section	.bss.log_buf.8284,"aw",%nobits
 175              		.align	2
 176              		.set	.LANCHOR0,. + 0
 179              	log_buf.8284:
 180 0000 00000000 		.space	512
ARM GAS  /tmp/ccqOiHbm.s 			page 5


 180      00000000 
 180      00000000 
 180      00000000 
 180      00000000 
 181              		.section	.rodata.WriteLog.str1.4,"aMS",%progbits,1
 182              		.align	2
 183              	.LC0:
 184 0000 25730D0A 		.ascii	"%s\015\012\000"
 184      00
 185              		.text
 186              	.Letext0:
 187              		.file 2 "/home/wumingju/Documents/aos/AliOS-Things/build/compiler/gcc-arm-none-eabi/Linux64/arm-no
 188              		.file 3 "/home/wumingju/Documents/aos/AliOS-Things/build/compiler/gcc-arm-none-eabi/Linux64/lib/gc
 189              		.file 4 "/home/wumingju/Documents/aos/AliOS-Things/build/compiler/gcc-arm-none-eabi/Linux64/arm-no
 190              		.file 5 "/home/wumingju/Documents/aos/AliOS-Things/build/compiler/gcc-arm-none-eabi/Linux64/arm-no
 191              		.file 6 "/home/wumingju/Documents/aos/AliOS-Things/build/compiler/gcc-arm-none-eabi/Linux64/arm-no
 192              		.file 7 "/home/wumingju/Documents/aos/AliOS-Things/build/compiler/gcc-arm-none-eabi/Linux64/lib/gc
 193              		.file 8 "/home/wumingju/Documents/aos/AliOS-Things/build/compiler/gcc-arm-none-eabi/Linux64/arm-no
 194              		.file 9 "<built-in>"
 195              		.file 10 "/home/wumingju/Documents/aos/AliOS-Things/build/compiler/gcc-arm-none-eabi/Linux64/arm-n
 196              		.file 11 "Platform/STM32F4xx/drivers/CMSIS/Include/core_cm4.h"
 197              		.file 12 "Platform/STM32F4xx/drivers/CMSIS/Device/ST/STM32F4xx/Include/system_stm32f4xx.h"
 198              		.file 13 "Platform/log.h"
ARM GAS  /tmp/ccqOiHbm.s 			page 6

