ARM GAS  /tmp/ccfPeaXp.s 			page 1


   1              		.cpu cortex-m4
   2              		.eabi_attribute 27, 1
   3              		.eabi_attribute 28, 1
   4              		.eabi_attribute 20, 1
   5              		.eabi_attribute 21, 1
   6              		.eabi_attribute 23, 3
   7              		.eabi_attribute 24, 1
   8              		.eabi_attribute 25, 1
   9              		.eabi_attribute 26, 1
  10              		.eabi_attribute 30, 1
  11              		.eabi_attribute 34, 1
  12              		.eabi_attribute 18, 4
  13              		.file	"mx_gpio.c"
  14              		.text
  15              	.Ltext0:
  16              		.cfi_sections	.debug_frame
  17              		.section	.text.mx_hal_gpio_init,"ax",%progbits
  18              		.align	1
  19              		.global	mx_hal_gpio_init
  20              		.syntax unified
  21              		.thumb
  22              		.thumb_func
  23              		.fpu fpv4-sp-d16
  25              	mx_hal_gpio_init:
  26              	.LFB128:
  27              		.file 1 "Platform/STM32F4xx/peripherals/mx_gpio.c"
   1:Platform/STM32F4xx/peripherals/mx_gpio.c **** /**
   2:Platform/STM32F4xx/peripherals/mx_gpio.c ****   ******************************************************************************
   3:Platform/STM32F4xx/peripherals/mx_gpio.c ****   * File Name          : gpio.c
   4:Platform/STM32F4xx/peripherals/mx_gpio.c ****   * Description        : This file provides code for the configuration
   5:Platform/STM32F4xx/peripherals/mx_gpio.c ****   *                      of all used GPIO pins.
   6:Platform/STM32F4xx/peripherals/mx_gpio.c ****   ******************************************************************************
   7:Platform/STM32F4xx/peripherals/mx_gpio.c ****   ** This notice applies to any and all portions of this file
   8:Platform/STM32F4xx/peripherals/mx_gpio.c ****   * that are not between comment pairs USER CODE BEGIN and
   9:Platform/STM32F4xx/peripherals/mx_gpio.c ****   * USER CODE END. Other portions of this file, whether 
  10:Platform/STM32F4xx/peripherals/mx_gpio.c ****   * inserted by the user or by software development tools
  11:Platform/STM32F4xx/peripherals/mx_gpio.c ****   * are owned by their respective copyright owners.
  12:Platform/STM32F4xx/peripherals/mx_gpio.c ****   *
  13:Platform/STM32F4xx/peripherals/mx_gpio.c ****   * COPYRIGHT(c) 2018 STMicroelectronics
  14:Platform/STM32F4xx/peripherals/mx_gpio.c ****   *
  15:Platform/STM32F4xx/peripherals/mx_gpio.c ****   * Redistribution and use in source and binary forms, with or without modification,
  16:Platform/STM32F4xx/peripherals/mx_gpio.c ****   * are permitted provided that the following conditions are met:
  17:Platform/STM32F4xx/peripherals/mx_gpio.c ****   *   1. Redistributions of source code must retain the above copyright notice,
  18:Platform/STM32F4xx/peripherals/mx_gpio.c ****   *      this list of conditions and the following disclaimer.
  19:Platform/STM32F4xx/peripherals/mx_gpio.c ****   *   2. Redistributions in binary form must reproduce the above copyright notice,
  20:Platform/STM32F4xx/peripherals/mx_gpio.c ****   *      this list of conditions and the following disclaimer in the documentation
  21:Platform/STM32F4xx/peripherals/mx_gpio.c ****   *      and/or other materials provided with the distribution.
  22:Platform/STM32F4xx/peripherals/mx_gpio.c ****   *   3. Neither the name of STMicroelectronics nor the names of its contributors
  23:Platform/STM32F4xx/peripherals/mx_gpio.c ****   *      may be used to endorse or promote products derived from this software
  24:Platform/STM32F4xx/peripherals/mx_gpio.c ****   *      without specific prior written permission.
  25:Platform/STM32F4xx/peripherals/mx_gpio.c ****   *
  26:Platform/STM32F4xx/peripherals/mx_gpio.c ****   * THIS SOFTWARE IS PROVIDED BY THE COPYRIGHT HOLDERS AND CONTRIBUTORS "AS IS"
  27:Platform/STM32F4xx/peripherals/mx_gpio.c ****   * AND ANY EXPRESS OR IMPLIED WARRANTIES, INCLUDING, BUT NOT LIMITED TO, THE
  28:Platform/STM32F4xx/peripherals/mx_gpio.c ****   * IMPLIED WARRANTIES OF MERCHANTABILITY AND FITNESS FOR A PARTICULAR PURPOSE ARE
  29:Platform/STM32F4xx/peripherals/mx_gpio.c ****   * DISCLAIMED. IN NO EVENT SHALL THE COPYRIGHT HOLDER OR CONTRIBUTORS BE LIABLE
  30:Platform/STM32F4xx/peripherals/mx_gpio.c ****   * FOR ANY DIRECT, INDIRECT, INCIDENTAL, SPECIAL, EXEMPLARY, OR CONSEQUENTIAL
  31:Platform/STM32F4xx/peripherals/mx_gpio.c ****   * DAMAGES (INCLUDING, BUT NOT LIMITED TO, PROCUREMENT OF SUBSTITUTE GOODS OR
ARM GAS  /tmp/ccfPeaXp.s 			page 2


  32:Platform/STM32F4xx/peripherals/mx_gpio.c ****   * SERVICES; LOSS OF USE, DATA, OR PROFITS; OR BUSINESS INTERRUPTION) HOWEVER
  33:Platform/STM32F4xx/peripherals/mx_gpio.c ****   * CAUSED AND ON ANY THEORY OF LIABILITY, WHETHER IN CONTRACT, STRICT LIABILITY,
  34:Platform/STM32F4xx/peripherals/mx_gpio.c ****   * OR TORT (INCLUDING NEGLIGENCE OR OTHERWISE) ARISING IN ANY WAY OUT OF THE USE
  35:Platform/STM32F4xx/peripherals/mx_gpio.c ****   * OF THIS SOFTWARE, EVEN IF ADVISED OF THE POSSIBILITY OF SUCH DAMAGE.
  36:Platform/STM32F4xx/peripherals/mx_gpio.c ****   *
  37:Platform/STM32F4xx/peripherals/mx_gpio.c ****   ******************************************************************************
  38:Platform/STM32F4xx/peripherals/mx_gpio.c ****   */
  39:Platform/STM32F4xx/peripherals/mx_gpio.c **** 
  40:Platform/STM32F4xx/peripherals/mx_gpio.c **** /* Includes ------------------------------------------------------------------*/
  41:Platform/STM32F4xx/peripherals/mx_gpio.c **** #include "mx_hal.h"
  42:Platform/STM32F4xx/peripherals/mx_gpio.c **** /* USER CODE BEGIN 0 */
  43:Platform/STM32F4xx/peripherals/mx_gpio.c **** 
  44:Platform/STM32F4xx/peripherals/mx_gpio.c **** /* USER CODE END 0 */
  45:Platform/STM32F4xx/peripherals/mx_gpio.c **** 
  46:Platform/STM32F4xx/peripherals/mx_gpio.c **** /*----------------------------------------------------------------------------*/
  47:Platform/STM32F4xx/peripherals/mx_gpio.c **** /* Configure GPIO                                                             */
  48:Platform/STM32F4xx/peripherals/mx_gpio.c **** /*----------------------------------------------------------------------------*/
  49:Platform/STM32F4xx/peripherals/mx_gpio.c **** /* USER CODE BEGIN 1 */
  50:Platform/STM32F4xx/peripherals/mx_gpio.c **** 
  51:Platform/STM32F4xx/peripherals/mx_gpio.c **** /* USER CODE END 1 */
  52:Platform/STM32F4xx/peripherals/mx_gpio.c **** 
  53:Platform/STM32F4xx/peripherals/mx_gpio.c **** /** Pinout Configuration
  54:Platform/STM32F4xx/peripherals/mx_gpio.c **** */
  55:Platform/STM32F4xx/peripherals/mx_gpio.c **** void mx_hal_gpio_init(void)
  56:Platform/STM32F4xx/peripherals/mx_gpio.c **** {
  28              		.loc 1 56 0
  29              		.cfi_startproc
  30              		@ args = 0, pretend = 0, frame = 24
  31              		@ frame_needed = 0, uses_anonymous_args = 0
  32 0000 00B5     		push	{lr}
  33              	.LCFI0:
  34              		.cfi_def_cfa_offset 4
  35              		.cfi_offset 14, -4
  36 0002 87B0     		sub	sp, sp, #28
  37              	.LCFI1:
  38              		.cfi_def_cfa_offset 32
  39              	.LBB2:
  57:Platform/STM32F4xx/peripherals/mx_gpio.c ****   GPIO_InitTypeDef GPIO_InitStruct;
  58:Platform/STM32F4xx/peripherals/mx_gpio.c ****   /* GPIO Ports Clock Enable */
  59:Platform/STM32F4xx/peripherals/mx_gpio.c ****   __HAL_RCC_GPIOA_CLK_ENABLE();
  40              		.loc 1 59 0
  41 0004 0023     		movs	r3, #0
  42 0006 0093     		str	r3, [sp]
  43 0008 0B4A     		ldr	r2, .L3
  44 000a 116B     		ldr	r1, [r2, #48]
  45 000c 41F00101 		orr	r1, r1, #1
  46 0010 1163     		str	r1, [r2, #48]
  47 0012 126B     		ldr	r2, [r2, #48]
  48 0014 02F00102 		and	r2, r2, #1
  49 0018 0092     		str	r2, [sp]
  50 001a 009A     		ldr	r2, [sp]
  51              	.LBE2:
  60:Platform/STM32F4xx/peripherals/mx_gpio.c ****   /*Configure GPIO pin : PA5 */
  61:Platform/STM32F4xx/peripherals/mx_gpio.c ****   GPIO_InitStruct.Pin = GPIO_PIN_5;
  52              		.loc 1 61 0
  53 001c 2022     		movs	r2, #32
  54 001e 0192     		str	r2, [sp, #4]
ARM GAS  /tmp/ccfPeaXp.s 			page 3


  62:Platform/STM32F4xx/peripherals/mx_gpio.c ****   GPIO_InitStruct.Mode = GPIO_MODE_OUTPUT_PP;
  55              		.loc 1 62 0
  56 0020 0122     		movs	r2, #1
  57 0022 0292     		str	r2, [sp, #8]
  63:Platform/STM32F4xx/peripherals/mx_gpio.c ****   GPIO_InitStruct.Pull = GPIO_NOPULL;
  58              		.loc 1 63 0
  59 0024 0393     		str	r3, [sp, #12]
  64:Platform/STM32F4xx/peripherals/mx_gpio.c ****   GPIO_InitStruct.Speed = GPIO_SPEED_FREQ_LOW;
  60              		.loc 1 64 0
  61 0026 0493     		str	r3, [sp, #16]
  65:Platform/STM32F4xx/peripherals/mx_gpio.c ****   HAL_GPIO_Init(GPIOA, &GPIO_InitStruct);
  62              		.loc 1 65 0
  63 0028 01A9     		add	r1, sp, #4
  64 002a 0448     		ldr	r0, .L3+4
  65 002c FFF7FEFF 		bl	HAL_GPIO_Init
  66              	.LVL0:
  66:Platform/STM32F4xx/peripherals/mx_gpio.c **** 
  67:Platform/STM32F4xx/peripherals/mx_gpio.c **** }
  67              		.loc 1 67 0
  68 0030 07B0     		add	sp, sp, #28
  69              	.LCFI2:
  70              		.cfi_def_cfa_offset 4
  71              		@ sp needed
  72 0032 5DF804FB 		ldr	pc, [sp], #4
  73              	.L4:
  74 0036 00BF     		.align	2
  75              	.L3:
  76 0038 00380240 		.word	1073887232
  77 003c 00000240 		.word	1073872896
  78              		.cfi_endproc
  79              	.LFE128:
  81              		.section	.text.mx_hal_sys_led,"ax",%progbits
  82              		.align	1
  83              		.global	mx_hal_sys_led
  84              		.syntax unified
  85              		.thumb
  86              		.thumb_func
  87              		.fpu fpv4-sp-d16
  89              	mx_hal_sys_led:
  90              	.LFB129:
  68:Platform/STM32F4xx/peripherals/mx_gpio.c **** 
  69:Platform/STM32F4xx/peripherals/mx_gpio.c **** void mx_hal_sys_led(bool enable)
  70:Platform/STM32F4xx/peripherals/mx_gpio.c **** {
  91              		.loc 1 70 0
  92              		.cfi_startproc
  93              		@ args = 0, pretend = 0, frame = 0
  94              		@ frame_needed = 0, uses_anonymous_args = 0
  95              	.LVL1:
  96 0000 08B5     		push	{r3, lr}
  97              	.LCFI3:
  98              		.cfi_def_cfa_offset 8
  99              		.cfi_offset 3, -8
 100              		.cfi_offset 14, -4
  71:Platform/STM32F4xx/peripherals/mx_gpio.c ****   if( true==enable )
 101              		.loc 1 71 0
 102 0002 28B9     		cbnz	r0, .L9
  72:Platform/STM32F4xx/peripherals/mx_gpio.c ****   {
ARM GAS  /tmp/ccfPeaXp.s 			page 4


  73:Platform/STM32F4xx/peripherals/mx_gpio.c ****     HAL_GPIO_WritePin(GPIOA, GPIO_PIN_5, GPIO_PIN_RESET);
  74:Platform/STM32F4xx/peripherals/mx_gpio.c ****   }else
  75:Platform/STM32F4xx/peripherals/mx_gpio.c ****   {
  76:Platform/STM32F4xx/peripherals/mx_gpio.c ****     HAL_GPIO_WritePin(GPIOA, GPIO_PIN_5, GPIO_PIN_SET);
 103              		.loc 1 76 0
 104 0004 0122     		movs	r2, #1
 105 0006 2021     		movs	r1, #32
 106 0008 0448     		ldr	r0, .L10
 107              	.LVL2:
 108 000a FFF7FEFF 		bl	HAL_GPIO_WritePin
 109              	.LVL3:
 110              	.L5:
  77:Platform/STM32F4xx/peripherals/mx_gpio.c ****   }
  78:Platform/STM32F4xx/peripherals/mx_gpio.c **** }
 111              		.loc 1 78 0
 112 000e 08BD     		pop	{r3, pc}
 113              	.LVL4:
 114              	.L9:
  73:Platform/STM32F4xx/peripherals/mx_gpio.c ****   }else
 115              		.loc 1 73 0
 116 0010 0022     		movs	r2, #0
 117 0012 2021     		movs	r1, #32
 118 0014 0148     		ldr	r0, .L10
 119              	.LVL5:
 120 0016 FFF7FEFF 		bl	HAL_GPIO_WritePin
 121              	.LVL6:
 122 001a F8E7     		b	.L5
 123              	.L11:
 124              		.align	2
 125              	.L10:
 126 001c 00000240 		.word	1073872896
 127              		.cfi_endproc
 128              	.LFE129:
 130              		.section	.text.mx_hal_sys_led_toggle,"ax",%progbits
 131              		.align	1
 132              		.global	mx_hal_sys_led_toggle
 133              		.syntax unified
 134              		.thumb
 135              		.thumb_func
 136              		.fpu fpv4-sp-d16
 138              	mx_hal_sys_led_toggle:
 139              	.LFB130:
  79:Platform/STM32F4xx/peripherals/mx_gpio.c **** 
  80:Platform/STM32F4xx/peripherals/mx_gpio.c **** void mx_hal_sys_led_toggle(void)
  81:Platform/STM32F4xx/peripherals/mx_gpio.c **** {
 140              		.loc 1 81 0
 141              		.cfi_startproc
 142              		@ args = 0, pretend = 0, frame = 0
 143              		@ frame_needed = 0, uses_anonymous_args = 0
 144 0000 08B5     		push	{r3, lr}
 145              	.LCFI4:
 146              		.cfi_def_cfa_offset 8
 147              		.cfi_offset 3, -8
 148              		.cfi_offset 14, -4
  82:Platform/STM32F4xx/peripherals/mx_gpio.c ****   HAL_GPIO_TogglePin(GPIOA, GPIO_PIN_5);
 149              		.loc 1 82 0
 150 0002 2021     		movs	r1, #32
ARM GAS  /tmp/ccfPeaXp.s 			page 5


 151 0004 0148     		ldr	r0, .L14
 152 0006 FFF7FEFF 		bl	HAL_GPIO_TogglePin
 153              	.LVL7:
  83:Platform/STM32F4xx/peripherals/mx_gpio.c **** }
 154              		.loc 1 83 0
 155 000a 08BD     		pop	{r3, pc}
 156              	.L15:
 157              		.align	2
 158              	.L14:
 159 000c 00000240 		.word	1073872896
 160              		.cfi_endproc
 161              	.LFE130:
 163              		.text
 164              	.Letext0:
 165              		.file 2 "/home/wumingju/Documents/aos/AliOS-Things/build/compiler/gcc-arm-none-eabi/Linux64/arm-no
 166              		.file 3 "/home/wumingju/Documents/aos/AliOS-Things/build/compiler/gcc-arm-none-eabi/Linux64/arm-no
 167              		.file 4 "/home/wumingju/Documents/aos/AliOS-Things/build/compiler/gcc-arm-none-eabi/Linux64/arm-no
 168              		.file 5 "/home/wumingju/Documents/aos/AliOS-Things/build/compiler/gcc-arm-none-eabi/Linux64/arm-no
 169              		.file 6 "/home/wumingju/Documents/aos/AliOS-Things/build/compiler/gcc-arm-none-eabi/Linux64/lib/gc
 170              		.file 7 "/home/wumingju/Documents/aos/AliOS-Things/build/compiler/gcc-arm-none-eabi/Linux64/arm-no
 171              		.file 8 "/home/wumingju/Documents/aos/AliOS-Things/build/compiler/gcc-arm-none-eabi/Linux64/arm-no
 172              		.file 9 "/home/wumingju/Documents/aos/AliOS-Things/build/compiler/gcc-arm-none-eabi/Linux64/arm-no
 173              		.file 10 "Platform/STM32F4xx/drivers/CMSIS/Include/core_cm4.h"
 174              		.file 11 "Platform/STM32F4xx/drivers/CMSIS/Device/ST/STM32F4xx/Include/system_stm32f4xx.h"
 175              		.file 12 "Platform/STM32F4xx/drivers/CMSIS/Device/ST/STM32F4xx/Include/stm32f411xe.h"
 176              		.file 13 "Platform/STM32F4xx/drivers/STM32F4xx_HAL_Driver/Inc/stm32f4xx_hal_def.h"
 177              		.file 14 "Platform/STM32F4xx/drivers/STM32F4xx_HAL_Driver/Inc/stm32f4xx_hal_gpio.h"
 178              		.file 15 "Platform/STM32F4xx/drivers/STM32F4xx_HAL_Driver/Inc/stm32f4xx_hal_dma.h"
 179              		.file 16 "Platform/STM32F4xx/drivers/STM32F4xx_HAL_Driver/Inc/stm32f4xx_hal_uart.h"
 180              		.file 17 "Platform/STM32F4xx/peripherals/mx_hal.h"
ARM GAS  /tmp/ccfPeaXp.s 			page 6

