ARM GAS  /tmp/ccN3Q5FG.s 			page 1


   1              		.cpu cortex-m4
   2              		.eabi_attribute 27, 1
   3              		.eabi_attribute 28, 1
   4              		.eabi_attribute 20, 1
   5              		.eabi_attribute 21, 1
   6              		.eabi_attribute 23, 3
   7              		.eabi_attribute 24, 1
   8              		.eabi_attribute 25, 1
   9              		.eabi_attribute 26, 1
  10              		.eabi_attribute 30, 1
  11              		.eabi_attribute 34, 1
  12              		.eabi_attribute 18, 4
  13              		.file	"mx_ringbuffer.c"
  14              		.text
  15              	.Ltext0:
  16              		.cfi_sections	.debug_frame
  17              		.section	.text.ringbuffer_init,"ax",%progbits
  18              		.align	1
  19              		.global	ringbuffer_init
  20              		.syntax unified
  21              		.thumb
  22              		.thumb_func
  23              		.fpu fpv4-sp-d16
  25              	ringbuffer_init:
  26              	.LFB5:
  27              		.file 1 "src/helper/mx_utils/mx_ringbuffer.c"
   1:src/helper/mx_utils/mx_ringbuffer.c **** #include "mx_ringbuffer.h"
   2:src/helper/mx_utils/mx_ringbuffer.c **** 
   3:src/helper/mx_utils/mx_ringbuffer.c **** /**
   4:src/helper/mx_utils/mx_ringbuffer.c ****  * \brief Ringbuffer init
   5:src/helper/mx_utils/mx_ringbuffer.c ****  */
   6:src/helper/mx_utils/mx_ringbuffer.c **** int32_t ringbuffer_init(struct ringbuffer* const rb, void* buf, uint32_t size)
   7:src/helper/mx_utils/mx_ringbuffer.c **** {
  28              		.loc 1 7 0
  29              		.cfi_startproc
  30              		@ args = 0, pretend = 0, frame = 0
  31              		@ frame_needed = 0, uses_anonymous_args = 0
  32              	.LVL0:
  33 0000 00B5     		push	{lr}
  34              	.LCFI0:
  35              		.cfi_def_cfa_offset 4
  36              		.cfi_offset 14, -4
  37 0002 83B0     		sub	sp, sp, #12
  38              	.LCFI1:
  39              		.cfi_def_cfa_offset 16
  40              	.LVL1:
   8:src/helper/mx_utils/mx_ringbuffer.c ****     mx_status err = kNoErr;
   9:src/helper/mx_utils/mx_ringbuffer.c ****     require_action(rb && buf && size, exit, err = kParamErr);
  41              		.loc 1 9 0
  42 0004 68B1     		cbz	r0, .L2
  43 0006 0346     		mov	r3, r0
  44              		.loc 1 9 0 is_stmt 0 discriminator 2
  45 0008 59B1     		cbz	r1, .L2
  46              		.loc 1 9 0 discriminator 4
  47 000a 52B1     		cbz	r2, .L2
  10:src/helper/mx_utils/mx_ringbuffer.c **** 
  11:src/helper/mx_utils/mx_ringbuffer.c ****     /*
ARM GAS  /tmp/ccN3Q5FG.s 			page 2


  12:src/helper/mx_utils/mx_ringbuffer.c **** 	 * buf size must be aligned to power of 2
  13:src/helper/mx_utils/mx_ringbuffer.c **** 	 */
  14:src/helper/mx_utils/mx_ringbuffer.c ****     require_action((size & (size - 1)) == 0, exit, err = kParamErr);
  48              		.loc 1 14 0 is_stmt 1
  49 000c 501E     		subs	r0, r2, #1
  50              	.LVL2:
  51 000e 1042     		tst	r0, r2
  52 0010 11D1     		bne	.L7
  15:src/helper/mx_utils/mx_ringbuffer.c **** 
  16:src/helper/mx_utils/mx_ringbuffer.c ****     /* size - 1 is faster in calculation */
  17:src/helper/mx_utils/mx_ringbuffer.c ****     rb->size = size - 1;
  53              		.loc 1 17 0
  54 0012 5860     		str	r0, [r3, #4]
  18:src/helper/mx_utils/mx_ringbuffer.c ****     rb->read_index = 0;
  55              		.loc 1 18 0
  56 0014 0020     		movs	r0, #0
  57 0016 9860     		str	r0, [r3, #8]
  19:src/helper/mx_utils/mx_ringbuffer.c ****     rb->write_index = rb->read_index;
  58              		.loc 1 19 0
  59 0018 D860     		str	r0, [r3, #12]
  20:src/helper/mx_utils/mx_ringbuffer.c ****     rb->buf = (uint8_t*)buf;
  60              		.loc 1 20 0
  61 001a 1960     		str	r1, [r3]
  62              	.L4:
  63              	.LVL3:
  64              	.L1:
  21:src/helper/mx_utils/mx_ringbuffer.c **** 
  22:src/helper/mx_utils/mx_ringbuffer.c **** exit:
  23:src/helper/mx_utils/mx_ringbuffer.c ****     return err;
  24:src/helper/mx_utils/mx_ringbuffer.c **** }
  65              		.loc 1 24 0
  66 001c 03B0     		add	sp, sp, #12
  67              	.LCFI2:
  68              		.cfi_remember_state
  69              		.cfi_def_cfa_offset 4
  70              		@ sp needed
  71 001e 5DF804FB 		ldr	pc, [sp], #4
  72              	.LVL4:
  73              	.L2:
  74              	.LCFI3:
  75              		.cfi_restore_state
   9:src/helper/mx_utils/mx_ringbuffer.c **** 
  76              		.loc 1 9 0 discriminator 5
  77 0022 0A4B     		ldr	r3, .L8
  78 0024 0093     		str	r3, [sp]
  79 0026 0923     		movs	r3, #9
  80 0028 094A     		ldr	r2, .L8+4
  81              	.LVL5:
  82 002a 0A49     		ldr	r1, .L8+8
  83              	.LVL6:
  84 002c 0A48     		ldr	r0, .L8+12
  85              	.LVL7:
  86 002e FFF7FEFF 		bl	printf
  87              	.LVL8:
  88 0032 0A48     		ldr	r0, .L8+16
  89 0034 F2E7     		b	.L1
  90              	.LVL9:
ARM GAS  /tmp/ccN3Q5FG.s 			page 3


  91              	.L7:
  14:src/helper/mx_utils/mx_ringbuffer.c **** 
  92              		.loc 1 14 0 discriminator 1
  93 0036 054B     		ldr	r3, .L8
  94              	.LVL10:
  95 0038 0093     		str	r3, [sp]
  96 003a 0E23     		movs	r3, #14
  97 003c 044A     		ldr	r2, .L8+4
  98              	.LVL11:
  99 003e 0549     		ldr	r1, .L8+8
 100              	.LVL12:
 101 0040 0548     		ldr	r0, .L8+12
 102              	.LVL13:
 103 0042 FFF7FEFF 		bl	printf
 104              	.LVL14:
 105 0046 0548     		ldr	r0, .L8+16
 106 0048 E8E7     		b	.L1
 107              	.L9:
 108 004a 00BF     		.align	2
 109              	.L8:
 110 004c 44000000 		.word	.LC2
 111 0050 00000000 		.word	.LANCHOR0
 112 0054 14000000 		.word	.LC0+20
 113 0058 24000000 		.word	.LC1
 114 005c CFE5FFFF 		.word	-6705
 115              		.cfi_endproc
 116              	.LFE5:
 118              		.section	.text.ringbuffer_get,"ax",%progbits
 119              		.align	1
 120              		.global	ringbuffer_get
 121              		.syntax unified
 122              		.thumb
 123              		.thumb_func
 124              		.fpu fpv4-sp-d16
 126              	ringbuffer_get:
 127              	.LFB6:
  25:src/helper/mx_utils/mx_ringbuffer.c **** 
  26:src/helper/mx_utils/mx_ringbuffer.c **** /**
  27:src/helper/mx_utils/mx_ringbuffer.c ****  * \brief Get one byte from ringbuffer
  28:src/helper/mx_utils/mx_ringbuffer.c ****  *
  29:src/helper/mx_utils/mx_ringbuffer.c ****  */
  30:src/helper/mx_utils/mx_ringbuffer.c **** int32_t ringbuffer_get(struct ringbuffer* const rb, uint8_t* data)
  31:src/helper/mx_utils/mx_ringbuffer.c **** {
 128              		.loc 1 31 0
 129              		.cfi_startproc
 130              		@ args = 0, pretend = 0, frame = 0
 131              		@ frame_needed = 0, uses_anonymous_args = 0
 132              	.LVL15:
 133 0000 10B5     		push	{r4, lr}
 134              	.LCFI4:
 135              		.cfi_def_cfa_offset 8
 136              		.cfi_offset 4, -8
 137              		.cfi_offset 14, -4
 138 0002 82B0     		sub	sp, sp, #8
 139              	.LCFI5:
 140              		.cfi_def_cfa_offset 16
 141              	.LVL16:
ARM GAS  /tmp/ccN3Q5FG.s 			page 4


  32:src/helper/mx_utils/mx_ringbuffer.c ****     mx_status err = kNotFoundErr;
  33:src/helper/mx_utils/mx_ringbuffer.c ****     require_action(rb && data, exit, err = kParamErr);
 142              		.loc 1 33 0
 143 0004 80B1     		cbz	r0, .L11
 144 0006 0346     		mov	r3, r0
 145              		.loc 1 33 0 is_stmt 0 discriminator 2
 146 0008 71B1     		cbz	r1, .L11
  34:src/helper/mx_utils/mx_ringbuffer.c **** 
  35:src/helper/mx_utils/mx_ringbuffer.c ****     if (rb->write_index != rb->read_index) {
 147              		.loc 1 35 0 is_stmt 1
 148 000a C068     		ldr	r0, [r0, #12]
 149              	.LVL17:
 150 000c 9A68     		ldr	r2, [r3, #8]
 151 000e 9042     		cmp	r0, r2
 152 0010 14D0     		beq	.L14
  36:src/helper/mx_utils/mx_ringbuffer.c ****         *data = rb->buf[rb->read_index & rb->size];
 153              		.loc 1 36 0
 154 0012 1868     		ldr	r0, [r3]
 155 0014 5C68     		ldr	r4, [r3, #4]
 156 0016 2240     		ands	r2, r2, r4
 157 0018 825C     		ldrb	r2, [r0, r2]	@ zero_extendqisi2
 158 001a 0A70     		strb	r2, [r1]
  37:src/helper/mx_utils/mx_ringbuffer.c ****         rb->read_index++;
 159              		.loc 1 37 0
 160 001c 9A68     		ldr	r2, [r3, #8]
 161 001e 0132     		adds	r2, r2, #1
 162 0020 9A60     		str	r2, [r3, #8]
  38:src/helper/mx_utils/mx_ringbuffer.c ****         return kNoErr;
 163              		.loc 1 38 0
 164 0022 0020     		movs	r0, #0
 165              	.LVL18:
 166              	.L10:
  39:src/helper/mx_utils/mx_ringbuffer.c ****     }
  40:src/helper/mx_utils/mx_ringbuffer.c **** 
  41:src/helper/mx_utils/mx_ringbuffer.c **** exit:
  42:src/helper/mx_utils/mx_ringbuffer.c ****     return err;
  43:src/helper/mx_utils/mx_ringbuffer.c **** }
 167              		.loc 1 43 0
 168 0024 02B0     		add	sp, sp, #8
 169              	.LCFI6:
 170              		.cfi_remember_state
 171              		.cfi_def_cfa_offset 8
 172              		@ sp needed
 173 0026 10BD     		pop	{r4, pc}
 174              	.LVL19:
 175              	.L11:
 176              	.LCFI7:
 177              		.cfi_restore_state
  33:src/helper/mx_utils/mx_ringbuffer.c **** 
 178              		.loc 1 33 0 discriminator 3
 179 0028 054B     		ldr	r3, .L16
 180 002a 0093     		str	r3, [sp]
 181 002c 2123     		movs	r3, #33
 182 002e 054A     		ldr	r2, .L16+4
 183 0030 0549     		ldr	r1, .L16+8
 184              	.LVL20:
 185 0032 0648     		ldr	r0, .L16+12
ARM GAS  /tmp/ccN3Q5FG.s 			page 5


 186              	.LVL21:
 187 0034 FFF7FEFF 		bl	printf
 188              	.LVL22:
 189 0038 0548     		ldr	r0, .L16+16
 190 003a F3E7     		b	.L10
 191              	.LVL23:
 192              	.L14:
  32:src/helper/mx_utils/mx_ringbuffer.c ****     require_action(rb && data, exit, err = kParamErr);
 193              		.loc 1 32 0
 194 003c 0548     		ldr	r0, .L16+20
 195 003e F1E7     		b	.L10
 196              	.L17:
 197              		.align	2
 198              	.L16:
 199 0040 44000000 		.word	.LC2
 200 0044 00000000 		.word	.LANCHOR1
 201 0048 14000000 		.word	.LC0+20
 202 004c 24000000 		.word	.LC1
 203 0050 CFE5FFFF 		.word	-6705
 204 0054 B9E5FFFF 		.word	-6727
 205              		.cfi_endproc
 206              	.LFE6:
 208              		.section	.text.ringbuffer_put,"ax",%progbits
 209              		.align	1
 210              		.global	ringbuffer_put
 211              		.syntax unified
 212              		.thumb
 213              		.thumb_func
 214              		.fpu fpv4-sp-d16
 216              	ringbuffer_put:
 217              	.LFB7:
  44:src/helper/mx_utils/mx_ringbuffer.c **** 
  45:src/helper/mx_utils/mx_ringbuffer.c **** /**
  46:src/helper/mx_utils/mx_ringbuffer.c ****  * \brief Put one byte to ringbuffer
  47:src/helper/mx_utils/mx_ringbuffer.c ****  *
  48:src/helper/mx_utils/mx_ringbuffer.c ****  */
  49:src/helper/mx_utils/mx_ringbuffer.c **** int32_t ringbuffer_put(struct ringbuffer* const rb, uint8_t data)
  50:src/helper/mx_utils/mx_ringbuffer.c **** {
 218              		.loc 1 50 0
 219              		.cfi_startproc
 220              		@ args = 0, pretend = 0, frame = 0
 221              		@ frame_needed = 0, uses_anonymous_args = 0
 222              	.LVL24:
 223 0000 10B5     		push	{r4, lr}
 224              	.LCFI8:
 225              		.cfi_def_cfa_offset 8
 226              		.cfi_offset 4, -8
 227              		.cfi_offset 14, -4
 228 0002 82B0     		sub	sp, sp, #8
 229              	.LCFI9:
 230              		.cfi_def_cfa_offset 16
 231              	.LVL25:
  51:src/helper/mx_utils/mx_ringbuffer.c ****     mx_status err = kNoErr;
  52:src/helper/mx_utils/mx_ringbuffer.c ****     require_action(rb, exit, err = kParamErr);
 232              		.loc 1 52 0
 233 0004 90B1     		cbz	r0, .L23
 234 0006 0346     		mov	r3, r0
ARM GAS  /tmp/ccN3Q5FG.s 			page 6


  53:src/helper/mx_utils/mx_ringbuffer.c **** 
  54:src/helper/mx_utils/mx_ringbuffer.c ****     rb->buf[rb->write_index & rb->size] = data;
 235              		.loc 1 54 0
 236 0008 0068     		ldr	r0, [r0]
 237              	.LVL26:
 238 000a DA68     		ldr	r2, [r3, #12]
 239 000c 5C68     		ldr	r4, [r3, #4]
 240 000e 2240     		ands	r2, r2, r4
 241 0010 8154     		strb	r1, [r0, r2]
  55:src/helper/mx_utils/mx_ringbuffer.c **** 
  56:src/helper/mx_utils/mx_ringbuffer.c ****     /*
  57:src/helper/mx_utils/mx_ringbuffer.c **** 	 * buffer full strategy: new data will overwrite the oldest data in
  58:src/helper/mx_utils/mx_ringbuffer.c **** 	 * the buffer
  59:src/helper/mx_utils/mx_ringbuffer.c **** 	 */
  60:src/helper/mx_utils/mx_ringbuffer.c ****     if ((rb->write_index - rb->read_index) > rb->size) {
 242              		.loc 1 60 0
 243 0012 DA68     		ldr	r2, [r3, #12]
 244 0014 9968     		ldr	r1, [r3, #8]
 245              	.LVL27:
 246 0016 511A     		subs	r1, r2, r1
 247 0018 5868     		ldr	r0, [r3, #4]
 248 001a 8142     		cmp	r1, r0
 249 001c 01D9     		bls	.L21
  61:src/helper/mx_utils/mx_ringbuffer.c ****         rb->read_index = rb->write_index - rb->size;
 250              		.loc 1 61 0
 251 001e 101A     		subs	r0, r2, r0
 252 0020 9860     		str	r0, [r3, #8]
 253              	.L21:
  62:src/helper/mx_utils/mx_ringbuffer.c ****     }
  63:src/helper/mx_utils/mx_ringbuffer.c **** 
  64:src/helper/mx_utils/mx_ringbuffer.c ****     rb->write_index++;
 254              		.loc 1 64 0
 255 0022 0132     		adds	r2, r2, #1
 256 0024 DA60     		str	r2, [r3, #12]
  51:src/helper/mx_utils/mx_ringbuffer.c ****     require_action(rb, exit, err = kParamErr);
 257              		.loc 1 51 0
 258 0026 0020     		movs	r0, #0
 259              	.L20:
 260              	.LVL28:
 261              	.L18:
  65:src/helper/mx_utils/mx_ringbuffer.c **** 
  66:src/helper/mx_utils/mx_ringbuffer.c **** exit:
  67:src/helper/mx_utils/mx_ringbuffer.c ****     return err;
  68:src/helper/mx_utils/mx_ringbuffer.c **** }
 262              		.loc 1 68 0
 263 0028 02B0     		add	sp, sp, #8
 264              	.LCFI10:
 265              		.cfi_remember_state
 266              		.cfi_def_cfa_offset 8
 267              		@ sp needed
 268 002a 10BD     		pop	{r4, pc}
 269              	.LVL29:
 270              	.L23:
 271              	.LCFI11:
 272              		.cfi_restore_state
  52:src/helper/mx_utils/mx_ringbuffer.c **** 
 273              		.loc 1 52 0 discriminator 1
ARM GAS  /tmp/ccN3Q5FG.s 			page 7


 274 002c 044B     		ldr	r3, .L24
 275 002e 0093     		str	r3, [sp]
 276 0030 3423     		movs	r3, #52
 277 0032 044A     		ldr	r2, .L24+4
 278 0034 0449     		ldr	r1, .L24+8
 279              	.LVL30:
 280 0036 0548     		ldr	r0, .L24+12
 281              	.LVL31:
 282 0038 FFF7FEFF 		bl	printf
 283              	.LVL32:
 284 003c 0448     		ldr	r0, .L24+16
 285 003e F3E7     		b	.L18
 286              	.L25:
 287              		.align	2
 288              	.L24:
 289 0040 44000000 		.word	.LC2
 290 0044 00000000 		.word	.LANCHOR2
 291 0048 14000000 		.word	.LC0+20
 292 004c 24000000 		.word	.LC1
 293 0050 CFE5FFFF 		.word	-6705
 294              		.cfi_endproc
 295              	.LFE7:
 297              		.section	.text.ringbuffer_num,"ax",%progbits
 298              		.align	1
 299              		.global	ringbuffer_num
 300              		.syntax unified
 301              		.thumb
 302              		.thumb_func
 303              		.fpu fpv4-sp-d16
 305              	ringbuffer_num:
 306              	.LFB8:
  69:src/helper/mx_utils/mx_ringbuffer.c **** 
  70:src/helper/mx_utils/mx_ringbuffer.c **** /**
  71:src/helper/mx_utils/mx_ringbuffer.c ****  * \brief Return the element number of ringbuffer
  72:src/helper/mx_utils/mx_ringbuffer.c ****  */
  73:src/helper/mx_utils/mx_ringbuffer.c **** uint32_t ringbuffer_num(const struct ringbuffer* const rb)
  74:src/helper/mx_utils/mx_ringbuffer.c **** {
 307              		.loc 1 74 0
 308              		.cfi_startproc
 309              		@ args = 0, pretend = 0, frame = 0
 310              		@ frame_needed = 0, uses_anonymous_args = 0
 311              		@ link register save eliminated.
 312              	.LVL33:
  75:src/helper/mx_utils/mx_ringbuffer.c ****     return rb->write_index - rb->read_index;
 313              		.loc 1 75 0
 314 0000 C268     		ldr	r2, [r0, #12]
 315 0002 8068     		ldr	r0, [r0, #8]
 316              	.LVL34:
  76:src/helper/mx_utils/mx_ringbuffer.c **** }
 317              		.loc 1 76 0
 318 0004 101A     		subs	r0, r2, r0
 319 0006 7047     		bx	lr
 320              		.cfi_endproc
 321              	.LFE8:
 323              		.section	.text.ringbuffer_flush,"ax",%progbits
 324              		.align	1
 325              		.global	ringbuffer_flush
ARM GAS  /tmp/ccN3Q5FG.s 			page 8


 326              		.syntax unified
 327              		.thumb
 328              		.thumb_func
 329              		.fpu fpv4-sp-d16
 331              	ringbuffer_flush:
 332              	.LFB9:
  77:src/helper/mx_utils/mx_ringbuffer.c **** 
  78:src/helper/mx_utils/mx_ringbuffer.c **** /**
  79:src/helper/mx_utils/mx_ringbuffer.c ****  * \brief Flush ringbuffer
  80:src/helper/mx_utils/mx_ringbuffer.c ****  */
  81:src/helper/mx_utils/mx_ringbuffer.c **** uint32_t ringbuffer_flush(struct ringbuffer* const rb)
  82:src/helper/mx_utils/mx_ringbuffer.c **** {
 333              		.loc 1 82 0
 334              		.cfi_startproc
 335              		@ args = 0, pretend = 0, frame = 0
 336              		@ frame_needed = 0, uses_anonymous_args = 0
 337              		@ link register save eliminated.
 338              	.LVL35:
  83:src/helper/mx_utils/mx_ringbuffer.c ****     rb->read_index = rb->write_index;
 339              		.loc 1 83 0
 340 0000 C368     		ldr	r3, [r0, #12]
 341 0002 8360     		str	r3, [r0, #8]
  84:src/helper/mx_utils/mx_ringbuffer.c ****     return kNoErr;
  85:src/helper/mx_utils/mx_ringbuffer.c **** }
 342              		.loc 1 85 0
 343 0004 0020     		movs	r0, #0
 344              	.LVL36:
 345 0006 7047     		bx	lr
 346              		.cfi_endproc
 347              	.LFE9:
 349              		.section	.rodata.__PRETTY_FUNCTION__.7179,"a",%progbits
 350              		.align	2
 351              		.set	.LANCHOR0,. + 0
 354              	__PRETTY_FUNCTION__.7179:
 355 0000 72696E67 		.ascii	"ringbuffer_init\000"
 355      62756666 
 355      65725F69 
 355      6E697400 
 356              		.section	.rodata.__PRETTY_FUNCTION__.7186,"a",%progbits
 357              		.align	2
 358              		.set	.LANCHOR1,. + 0
 361              	__PRETTY_FUNCTION__.7186:
 362 0000 72696E67 		.ascii	"ringbuffer_get\000"
 362      62756666 
 362      65725F67 
 362      657400
 363              		.section	.rodata.__PRETTY_FUNCTION__.7193,"a",%progbits
 364              		.align	2
 365              		.set	.LANCHOR2,. + 0
 368              	__PRETTY_FUNCTION__.7193:
 369 0000 72696E67 		.ascii	"ringbuffer_put\000"
 369      62756666 
 369      65725F70 
 369      757400
 370              		.section	.rodata.ringbuffer_init.str1.4,"aMS",%progbits,1
 371              		.align	2
 372              	.LC0:
ARM GAS  /tmp/ccN3Q5FG.s 			page 9


 373 0000 7372632F 		.ascii	"src/helper/mx_utils/mx_ringbuffer.c\000"
 373      68656C70 
 373      65722F6D 
 373      785F7574 
 373      696C732F 
 374              	.LC1:
 375 0024 5B4D583A 		.ascii	"[MX:%s:%s:%4d] **ASSERT** %s\015\012\000"
 375      25733A25 
 375      733A2534 
 375      645D202A 
 375      2A415353 
 376 0043 00       		.space	1
 377              	.LC2:
 378 0044 00       		.ascii	"\000"
 379              		.text
 380              	.Letext0:
 381              		.file 2 "/home/wumingju/Documents/aos/AliOS-Things/build/compiler/gcc-arm-none-eabi/Linux64/arm-no
 382              		.file 3 "/home/wumingju/Documents/aos/AliOS-Things/build/compiler/gcc-arm-none-eabi/Linux64/arm-no
 383              		.file 4 "/home/wumingju/Documents/aos/AliOS-Things/build/compiler/gcc-arm-none-eabi/Linux64/arm-no
 384              		.file 5 "/home/wumingju/Documents/aos/AliOS-Things/build/compiler/gcc-arm-none-eabi/Linux64/arm-no
 385              		.file 6 "/home/wumingju/Documents/aos/AliOS-Things/build/compiler/gcc-arm-none-eabi/Linux64/lib/gc
 386              		.file 7 "/home/wumingju/Documents/aos/AliOS-Things/build/compiler/gcc-arm-none-eabi/Linux64/arm-no
 387              		.file 8 "/home/wumingju/Documents/aos/AliOS-Things/build/compiler/gcc-arm-none-eabi/Linux64/arm-no
 388              		.file 9 "/home/wumingju/Documents/aos/AliOS-Things/build/compiler/gcc-arm-none-eabi/Linux64/arm-no
 389              		.file 10 "src/helper/mx_common.h"
 390              		.file 11 "src/helper/mx_utils/mx_ringbuffer.h"
 391              		.file 12 "/home/wumingju/Documents/aos/AliOS-Things/build/compiler/gcc-arm-none-eabi/Linux64/arm-n
ARM GAS  /tmp/ccN3Q5FG.s 			page 10

