ARM GAS  /tmp/ccnX3E2Z.s 			page 1


   1              		.cpu cortex-m4
   2              		.eabi_attribute 27, 1
   3              		.eabi_attribute 28, 1
   4              		.eabi_attribute 20, 1
   5              		.eabi_attribute 21, 1
   6              		.eabi_attribute 23, 3
   7              		.eabi_attribute 24, 1
   8              		.eabi_attribute 25, 1
   9              		.eabi_attribute 26, 1
  10              		.eabi_attribute 30, 1
  11              		.eabi_attribute 34, 1
  12              		.eabi_attribute 18, 4
  13              		.file	"stm32f4xx_hal_flash.c"
  14              		.text
  15              	.Ltext0:
  16              		.cfi_sections	.debug_frame
  17              		.section	.text.FLASH_Program_DoubleWord,"ax",%progbits
  18              		.align	1
  19              		.syntax unified
  20              		.thumb
  21              		.thumb_func
  22              		.fpu fpv4-sp-d16
  24              	FLASH_Program_DoubleWord:
  25              	.LFB138:
  26              		.file 1 "Platform/STM32F4xx/drivers/STM32F4xx_HAL_Driver/Src/stm32f4xx_hal_flash.c"
   1:Platform/STM32F4xx/drivers/STM32F4xx_HAL_Driver/Src/stm32f4xx_hal_flash.c **** /**
   2:Platform/STM32F4xx/drivers/STM32F4xx_HAL_Driver/Src/stm32f4xx_hal_flash.c ****   ******************************************************************************
   3:Platform/STM32F4xx/drivers/STM32F4xx_HAL_Driver/Src/stm32f4xx_hal_flash.c ****   * @file    stm32f4xx_hal_flash.c
   4:Platform/STM32F4xx/drivers/STM32F4xx_HAL_Driver/Src/stm32f4xx_hal_flash.c ****   * @author  MCD Application Team
   5:Platform/STM32F4xx/drivers/STM32F4xx_HAL_Driver/Src/stm32f4xx_hal_flash.c ****   * @brief   FLASH HAL module driver.
   6:Platform/STM32F4xx/drivers/STM32F4xx_HAL_Driver/Src/stm32f4xx_hal_flash.c ****   *          This file provides firmware functions to manage the following 
   7:Platform/STM32F4xx/drivers/STM32F4xx_HAL_Driver/Src/stm32f4xx_hal_flash.c ****   *          functionalities of the internal FLASH memory:
   8:Platform/STM32F4xx/drivers/STM32F4xx_HAL_Driver/Src/stm32f4xx_hal_flash.c ****   *           + Program operations functions
   9:Platform/STM32F4xx/drivers/STM32F4xx_HAL_Driver/Src/stm32f4xx_hal_flash.c ****   *           + Memory Control functions 
  10:Platform/STM32F4xx/drivers/STM32F4xx_HAL_Driver/Src/stm32f4xx_hal_flash.c ****   *           + Peripheral Errors functions
  11:Platform/STM32F4xx/drivers/STM32F4xx_HAL_Driver/Src/stm32f4xx_hal_flash.c ****   *         
  12:Platform/STM32F4xx/drivers/STM32F4xx_HAL_Driver/Src/stm32f4xx_hal_flash.c ****   @verbatim
  13:Platform/STM32F4xx/drivers/STM32F4xx_HAL_Driver/Src/stm32f4xx_hal_flash.c ****   ==============================================================================
  14:Platform/STM32F4xx/drivers/STM32F4xx_HAL_Driver/Src/stm32f4xx_hal_flash.c ****                         ##### FLASH peripheral features #####
  15:Platform/STM32F4xx/drivers/STM32F4xx_HAL_Driver/Src/stm32f4xx_hal_flash.c ****   ==============================================================================
  16:Platform/STM32F4xx/drivers/STM32F4xx_HAL_Driver/Src/stm32f4xx_hal_flash.c ****            
  17:Platform/STM32F4xx/drivers/STM32F4xx_HAL_Driver/Src/stm32f4xx_hal_flash.c ****   [..] The Flash memory interface manages CPU AHB I-Code and D-Code accesses 
  18:Platform/STM32F4xx/drivers/STM32F4xx_HAL_Driver/Src/stm32f4xx_hal_flash.c ****        to the Flash memory. It implements the erase and program Flash memory operations 
  19:Platform/STM32F4xx/drivers/STM32F4xx_HAL_Driver/Src/stm32f4xx_hal_flash.c ****        and the read and write protection mechanisms.
  20:Platform/STM32F4xx/drivers/STM32F4xx_HAL_Driver/Src/stm32f4xx_hal_flash.c ****       
  21:Platform/STM32F4xx/drivers/STM32F4xx_HAL_Driver/Src/stm32f4xx_hal_flash.c ****   [..] The Flash memory interface accelerates code execution with a system of instruction
  22:Platform/STM32F4xx/drivers/STM32F4xx_HAL_Driver/Src/stm32f4xx_hal_flash.c ****        prefetch and cache lines. 
  23:Platform/STM32F4xx/drivers/STM32F4xx_HAL_Driver/Src/stm32f4xx_hal_flash.c **** 
  24:Platform/STM32F4xx/drivers/STM32F4xx_HAL_Driver/Src/stm32f4xx_hal_flash.c ****   [..] The FLASH main features are:
  25:Platform/STM32F4xx/drivers/STM32F4xx_HAL_Driver/Src/stm32f4xx_hal_flash.c ****       (+) Flash memory read operations
  26:Platform/STM32F4xx/drivers/STM32F4xx_HAL_Driver/Src/stm32f4xx_hal_flash.c ****       (+) Flash memory program/erase operations
  27:Platform/STM32F4xx/drivers/STM32F4xx_HAL_Driver/Src/stm32f4xx_hal_flash.c ****       (+) Read / write protections
  28:Platform/STM32F4xx/drivers/STM32F4xx_HAL_Driver/Src/stm32f4xx_hal_flash.c ****       (+) Prefetch on I-Code
  29:Platform/STM32F4xx/drivers/STM32F4xx_HAL_Driver/Src/stm32f4xx_hal_flash.c ****       (+) 64 cache lines of 128 bits on I-Code
  30:Platform/STM32F4xx/drivers/STM32F4xx_HAL_Driver/Src/stm32f4xx_hal_flash.c ****       (+) 8 cache lines of 128 bits on D-Code
  31:Platform/STM32F4xx/drivers/STM32F4xx_HAL_Driver/Src/stm32f4xx_hal_flash.c ****       
  32:Platform/STM32F4xx/drivers/STM32F4xx_HAL_Driver/Src/stm32f4xx_hal_flash.c ****       
ARM GAS  /tmp/ccnX3E2Z.s 			page 2


  33:Platform/STM32F4xx/drivers/STM32F4xx_HAL_Driver/Src/stm32f4xx_hal_flash.c ****                      ##### How to use this driver #####
  34:Platform/STM32F4xx/drivers/STM32F4xx_HAL_Driver/Src/stm32f4xx_hal_flash.c ****   ==============================================================================
  35:Platform/STM32F4xx/drivers/STM32F4xx_HAL_Driver/Src/stm32f4xx_hal_flash.c ****     [..]                             
  36:Platform/STM32F4xx/drivers/STM32F4xx_HAL_Driver/Src/stm32f4xx_hal_flash.c ****       This driver provides functions and macros to configure and program the FLASH 
  37:Platform/STM32F4xx/drivers/STM32F4xx_HAL_Driver/Src/stm32f4xx_hal_flash.c ****       memory of all STM32F4xx devices.
  38:Platform/STM32F4xx/drivers/STM32F4xx_HAL_Driver/Src/stm32f4xx_hal_flash.c ****     
  39:Platform/STM32F4xx/drivers/STM32F4xx_HAL_Driver/Src/stm32f4xx_hal_flash.c ****       (#) FLASH Memory IO Programming functions: 
  40:Platform/STM32F4xx/drivers/STM32F4xx_HAL_Driver/Src/stm32f4xx_hal_flash.c ****            (++) Lock and Unlock the FLASH interface using HAL_FLASH_Unlock() and 
  41:Platform/STM32F4xx/drivers/STM32F4xx_HAL_Driver/Src/stm32f4xx_hal_flash.c ****                 HAL_FLASH_Lock() functions
  42:Platform/STM32F4xx/drivers/STM32F4xx_HAL_Driver/Src/stm32f4xx_hal_flash.c ****            (++) Program functions: byte, half word, word and double word
  43:Platform/STM32F4xx/drivers/STM32F4xx_HAL_Driver/Src/stm32f4xx_hal_flash.c ****            (++) There Two modes of programming :
  44:Platform/STM32F4xx/drivers/STM32F4xx_HAL_Driver/Src/stm32f4xx_hal_flash.c ****             (+++) Polling mode using HAL_FLASH_Program() function
  45:Platform/STM32F4xx/drivers/STM32F4xx_HAL_Driver/Src/stm32f4xx_hal_flash.c ****             (+++) Interrupt mode using HAL_FLASH_Program_IT() function
  46:Platform/STM32F4xx/drivers/STM32F4xx_HAL_Driver/Src/stm32f4xx_hal_flash.c ****     
  47:Platform/STM32F4xx/drivers/STM32F4xx_HAL_Driver/Src/stm32f4xx_hal_flash.c ****       (#) Interrupts and flags management functions : 
  48:Platform/STM32F4xx/drivers/STM32F4xx_HAL_Driver/Src/stm32f4xx_hal_flash.c ****            (++) Handle FLASH interrupts by calling HAL_FLASH_IRQHandler()
  49:Platform/STM32F4xx/drivers/STM32F4xx_HAL_Driver/Src/stm32f4xx_hal_flash.c ****            (++) Wait for last FLASH operation according to its status
  50:Platform/STM32F4xx/drivers/STM32F4xx_HAL_Driver/Src/stm32f4xx_hal_flash.c ****            (++) Get error flag status by calling HAL_SetErrorCode()          
  51:Platform/STM32F4xx/drivers/STM32F4xx_HAL_Driver/Src/stm32f4xx_hal_flash.c **** 
  52:Platform/STM32F4xx/drivers/STM32F4xx_HAL_Driver/Src/stm32f4xx_hal_flash.c ****     [..] 
  53:Platform/STM32F4xx/drivers/STM32F4xx_HAL_Driver/Src/stm32f4xx_hal_flash.c ****       In addition to these functions, this driver includes a set of macros allowing
  54:Platform/STM32F4xx/drivers/STM32F4xx_HAL_Driver/Src/stm32f4xx_hal_flash.c ****       to handle the following operations:
  55:Platform/STM32F4xx/drivers/STM32F4xx_HAL_Driver/Src/stm32f4xx_hal_flash.c ****        (+) Set the latency
  56:Platform/STM32F4xx/drivers/STM32F4xx_HAL_Driver/Src/stm32f4xx_hal_flash.c ****        (+) Enable/Disable the prefetch buffer
  57:Platform/STM32F4xx/drivers/STM32F4xx_HAL_Driver/Src/stm32f4xx_hal_flash.c ****        (+) Enable/Disable the Instruction cache and the Data cache
  58:Platform/STM32F4xx/drivers/STM32F4xx_HAL_Driver/Src/stm32f4xx_hal_flash.c ****        (+) Reset the Instruction cache and the Data cache
  59:Platform/STM32F4xx/drivers/STM32F4xx_HAL_Driver/Src/stm32f4xx_hal_flash.c ****        (+) Enable/Disable the FLASH interrupts
  60:Platform/STM32F4xx/drivers/STM32F4xx_HAL_Driver/Src/stm32f4xx_hal_flash.c ****        (+) Monitor the FLASH flags status
  61:Platform/STM32F4xx/drivers/STM32F4xx_HAL_Driver/Src/stm32f4xx_hal_flash.c ****           
  62:Platform/STM32F4xx/drivers/STM32F4xx_HAL_Driver/Src/stm32f4xx_hal_flash.c ****   @endverbatim
  63:Platform/STM32F4xx/drivers/STM32F4xx_HAL_Driver/Src/stm32f4xx_hal_flash.c ****   ******************************************************************************
  64:Platform/STM32F4xx/drivers/STM32F4xx_HAL_Driver/Src/stm32f4xx_hal_flash.c ****   * @attention
  65:Platform/STM32F4xx/drivers/STM32F4xx_HAL_Driver/Src/stm32f4xx_hal_flash.c ****   *
  66:Platform/STM32F4xx/drivers/STM32F4xx_HAL_Driver/Src/stm32f4xx_hal_flash.c ****   * <h2><center>&copy; COPYRIGHT(c) 2017 STMicroelectronics</center></h2>
  67:Platform/STM32F4xx/drivers/STM32F4xx_HAL_Driver/Src/stm32f4xx_hal_flash.c ****   *
  68:Platform/STM32F4xx/drivers/STM32F4xx_HAL_Driver/Src/stm32f4xx_hal_flash.c ****   * Redistribution and use in source and binary forms, with or without modification,
  69:Platform/STM32F4xx/drivers/STM32F4xx_HAL_Driver/Src/stm32f4xx_hal_flash.c ****   * are permitted provided that the following conditions are met:
  70:Platform/STM32F4xx/drivers/STM32F4xx_HAL_Driver/Src/stm32f4xx_hal_flash.c ****   *   1. Redistributions of source code must retain the above copyright notice,
  71:Platform/STM32F4xx/drivers/STM32F4xx_HAL_Driver/Src/stm32f4xx_hal_flash.c ****   *      this list of conditions and the following disclaimer.
  72:Platform/STM32F4xx/drivers/STM32F4xx_HAL_Driver/Src/stm32f4xx_hal_flash.c ****   *   2. Redistributions in binary form must reproduce the above copyright notice,
  73:Platform/STM32F4xx/drivers/STM32F4xx_HAL_Driver/Src/stm32f4xx_hal_flash.c ****   *      this list of conditions and the following disclaimer in the documentation
  74:Platform/STM32F4xx/drivers/STM32F4xx_HAL_Driver/Src/stm32f4xx_hal_flash.c ****   *      and/or other materials provided with the distribution.
  75:Platform/STM32F4xx/drivers/STM32F4xx_HAL_Driver/Src/stm32f4xx_hal_flash.c ****   *   3. Neither the name of STMicroelectronics nor the names of its contributors
  76:Platform/STM32F4xx/drivers/STM32F4xx_HAL_Driver/Src/stm32f4xx_hal_flash.c ****   *      may be used to endorse or promote products derived from this software
  77:Platform/STM32F4xx/drivers/STM32F4xx_HAL_Driver/Src/stm32f4xx_hal_flash.c ****   *      without specific prior written permission.
  78:Platform/STM32F4xx/drivers/STM32F4xx_HAL_Driver/Src/stm32f4xx_hal_flash.c ****   *
  79:Platform/STM32F4xx/drivers/STM32F4xx_HAL_Driver/Src/stm32f4xx_hal_flash.c ****   * THIS SOFTWARE IS PROVIDED BY THE COPYRIGHT HOLDERS AND CONTRIBUTORS "AS IS"
  80:Platform/STM32F4xx/drivers/STM32F4xx_HAL_Driver/Src/stm32f4xx_hal_flash.c ****   * AND ANY EXPRESS OR IMPLIED WARRANTIES, INCLUDING, BUT NOT LIMITED TO, THE
  81:Platform/STM32F4xx/drivers/STM32F4xx_HAL_Driver/Src/stm32f4xx_hal_flash.c ****   * IMPLIED WARRANTIES OF MERCHANTABILITY AND FITNESS FOR A PARTICULAR PURPOSE ARE
  82:Platform/STM32F4xx/drivers/STM32F4xx_HAL_Driver/Src/stm32f4xx_hal_flash.c ****   * DISCLAIMED. IN NO EVENT SHALL THE COPYRIGHT HOLDER OR CONTRIBUTORS BE LIABLE
  83:Platform/STM32F4xx/drivers/STM32F4xx_HAL_Driver/Src/stm32f4xx_hal_flash.c ****   * FOR ANY DIRECT, INDIRECT, INCIDENTAL, SPECIAL, EXEMPLARY, OR CONSEQUENTIAL
  84:Platform/STM32F4xx/drivers/STM32F4xx_HAL_Driver/Src/stm32f4xx_hal_flash.c ****   * DAMAGES (INCLUDING, BUT NOT LIMITED TO, PROCUREMENT OF SUBSTITUTE GOODS OR
  85:Platform/STM32F4xx/drivers/STM32F4xx_HAL_Driver/Src/stm32f4xx_hal_flash.c ****   * SERVICES; LOSS OF USE, DATA, OR PROFITS; OR BUSINESS INTERRUPTION) HOWEVER
  86:Platform/STM32F4xx/drivers/STM32F4xx_HAL_Driver/Src/stm32f4xx_hal_flash.c ****   * CAUSED AND ON ANY THEORY OF LIABILITY, WHETHER IN CONTRACT, STRICT LIABILITY,
  87:Platform/STM32F4xx/drivers/STM32F4xx_HAL_Driver/Src/stm32f4xx_hal_flash.c ****   * OR TORT (INCLUDING NEGLIGENCE OR OTHERWISE) ARISING IN ANY WAY OUT OF THE USE
  88:Platform/STM32F4xx/drivers/STM32F4xx_HAL_Driver/Src/stm32f4xx_hal_flash.c ****   * OF THIS SOFTWARE, EVEN IF ADVISED OF THE POSSIBILITY OF SUCH DAMAGE.
  89:Platform/STM32F4xx/drivers/STM32F4xx_HAL_Driver/Src/stm32f4xx_hal_flash.c ****   *
ARM GAS  /tmp/ccnX3E2Z.s 			page 3


  90:Platform/STM32F4xx/drivers/STM32F4xx_HAL_Driver/Src/stm32f4xx_hal_flash.c ****   ******************************************************************************
  91:Platform/STM32F4xx/drivers/STM32F4xx_HAL_Driver/Src/stm32f4xx_hal_flash.c ****   */ 
  92:Platform/STM32F4xx/drivers/STM32F4xx_HAL_Driver/Src/stm32f4xx_hal_flash.c **** 
  93:Platform/STM32F4xx/drivers/STM32F4xx_HAL_Driver/Src/stm32f4xx_hal_flash.c **** /* Includes ------------------------------------------------------------------*/
  94:Platform/STM32F4xx/drivers/STM32F4xx_HAL_Driver/Src/stm32f4xx_hal_flash.c **** #include "stm32f4xx_hal.h"
  95:Platform/STM32F4xx/drivers/STM32F4xx_HAL_Driver/Src/stm32f4xx_hal_flash.c **** 
  96:Platform/STM32F4xx/drivers/STM32F4xx_HAL_Driver/Src/stm32f4xx_hal_flash.c **** /** @addtogroup STM32F4xx_HAL_Driver
  97:Platform/STM32F4xx/drivers/STM32F4xx_HAL_Driver/Src/stm32f4xx_hal_flash.c ****   * @{
  98:Platform/STM32F4xx/drivers/STM32F4xx_HAL_Driver/Src/stm32f4xx_hal_flash.c ****   */
  99:Platform/STM32F4xx/drivers/STM32F4xx_HAL_Driver/Src/stm32f4xx_hal_flash.c **** 
 100:Platform/STM32F4xx/drivers/STM32F4xx_HAL_Driver/Src/stm32f4xx_hal_flash.c **** /** @defgroup FLASH FLASH
 101:Platform/STM32F4xx/drivers/STM32F4xx_HAL_Driver/Src/stm32f4xx_hal_flash.c ****   * @brief FLASH HAL module driver
 102:Platform/STM32F4xx/drivers/STM32F4xx_HAL_Driver/Src/stm32f4xx_hal_flash.c ****   * @{
 103:Platform/STM32F4xx/drivers/STM32F4xx_HAL_Driver/Src/stm32f4xx_hal_flash.c ****   */
 104:Platform/STM32F4xx/drivers/STM32F4xx_HAL_Driver/Src/stm32f4xx_hal_flash.c **** 
 105:Platform/STM32F4xx/drivers/STM32F4xx_HAL_Driver/Src/stm32f4xx_hal_flash.c **** #ifdef HAL_FLASH_MODULE_ENABLED
 106:Platform/STM32F4xx/drivers/STM32F4xx_HAL_Driver/Src/stm32f4xx_hal_flash.c **** 
 107:Platform/STM32F4xx/drivers/STM32F4xx_HAL_Driver/Src/stm32f4xx_hal_flash.c **** /* Private typedef -----------------------------------------------------------*/
 108:Platform/STM32F4xx/drivers/STM32F4xx_HAL_Driver/Src/stm32f4xx_hal_flash.c **** /* Private define ------------------------------------------------------------*/
 109:Platform/STM32F4xx/drivers/STM32F4xx_HAL_Driver/Src/stm32f4xx_hal_flash.c **** /** @addtogroup FLASH_Private_Constants
 110:Platform/STM32F4xx/drivers/STM32F4xx_HAL_Driver/Src/stm32f4xx_hal_flash.c ****   * @{
 111:Platform/STM32F4xx/drivers/STM32F4xx_HAL_Driver/Src/stm32f4xx_hal_flash.c ****   */
 112:Platform/STM32F4xx/drivers/STM32F4xx_HAL_Driver/Src/stm32f4xx_hal_flash.c **** #define FLASH_TIMEOUT_VALUE       50000U /* 50 s */
 113:Platform/STM32F4xx/drivers/STM32F4xx_HAL_Driver/Src/stm32f4xx_hal_flash.c **** /**
 114:Platform/STM32F4xx/drivers/STM32F4xx_HAL_Driver/Src/stm32f4xx_hal_flash.c ****   * @}
 115:Platform/STM32F4xx/drivers/STM32F4xx_HAL_Driver/Src/stm32f4xx_hal_flash.c ****   */         
 116:Platform/STM32F4xx/drivers/STM32F4xx_HAL_Driver/Src/stm32f4xx_hal_flash.c **** /* Private macro -------------------------------------------------------------*/
 117:Platform/STM32F4xx/drivers/STM32F4xx_HAL_Driver/Src/stm32f4xx_hal_flash.c **** /* Private variables ---------------------------------------------------------*/
 118:Platform/STM32F4xx/drivers/STM32F4xx_HAL_Driver/Src/stm32f4xx_hal_flash.c **** /** @addtogroup FLASH_Private_Variables
 119:Platform/STM32F4xx/drivers/STM32F4xx_HAL_Driver/Src/stm32f4xx_hal_flash.c ****   * @{
 120:Platform/STM32F4xx/drivers/STM32F4xx_HAL_Driver/Src/stm32f4xx_hal_flash.c ****   */
 121:Platform/STM32F4xx/drivers/STM32F4xx_HAL_Driver/Src/stm32f4xx_hal_flash.c **** /* Variable used for Erase sectors under interruption */
 122:Platform/STM32F4xx/drivers/STM32F4xx_HAL_Driver/Src/stm32f4xx_hal_flash.c **** FLASH_ProcessTypeDef pFlash;
 123:Platform/STM32F4xx/drivers/STM32F4xx_HAL_Driver/Src/stm32f4xx_hal_flash.c **** /**
 124:Platform/STM32F4xx/drivers/STM32F4xx_HAL_Driver/Src/stm32f4xx_hal_flash.c ****   * @}
 125:Platform/STM32F4xx/drivers/STM32F4xx_HAL_Driver/Src/stm32f4xx_hal_flash.c ****   */
 126:Platform/STM32F4xx/drivers/STM32F4xx_HAL_Driver/Src/stm32f4xx_hal_flash.c **** 
 127:Platform/STM32F4xx/drivers/STM32F4xx_HAL_Driver/Src/stm32f4xx_hal_flash.c **** /* Private function prototypes -----------------------------------------------*/
 128:Platform/STM32F4xx/drivers/STM32F4xx_HAL_Driver/Src/stm32f4xx_hal_flash.c **** /** @addtogroup FLASH_Private_Functions
 129:Platform/STM32F4xx/drivers/STM32F4xx_HAL_Driver/Src/stm32f4xx_hal_flash.c ****   * @{
 130:Platform/STM32F4xx/drivers/STM32F4xx_HAL_Driver/Src/stm32f4xx_hal_flash.c ****   */
 131:Platform/STM32F4xx/drivers/STM32F4xx_HAL_Driver/Src/stm32f4xx_hal_flash.c **** /* Program operations */
 132:Platform/STM32F4xx/drivers/STM32F4xx_HAL_Driver/Src/stm32f4xx_hal_flash.c **** static void   FLASH_Program_DoubleWord(uint32_t Address, uint64_t Data);
 133:Platform/STM32F4xx/drivers/STM32F4xx_HAL_Driver/Src/stm32f4xx_hal_flash.c **** static void   FLASH_Program_Word(uint32_t Address, uint32_t Data);
 134:Platform/STM32F4xx/drivers/STM32F4xx_HAL_Driver/Src/stm32f4xx_hal_flash.c **** static void   FLASH_Program_HalfWord(uint32_t Address, uint16_t Data);
 135:Platform/STM32F4xx/drivers/STM32F4xx_HAL_Driver/Src/stm32f4xx_hal_flash.c **** static void   FLASH_Program_Byte(uint32_t Address, uint8_t Data);
 136:Platform/STM32F4xx/drivers/STM32F4xx_HAL_Driver/Src/stm32f4xx_hal_flash.c **** static void   FLASH_SetErrorCode(void);
 137:Platform/STM32F4xx/drivers/STM32F4xx_HAL_Driver/Src/stm32f4xx_hal_flash.c **** 
 138:Platform/STM32F4xx/drivers/STM32F4xx_HAL_Driver/Src/stm32f4xx_hal_flash.c **** HAL_StatusTypeDef FLASH_WaitForLastOperation(uint32_t Timeout);
 139:Platform/STM32F4xx/drivers/STM32F4xx_HAL_Driver/Src/stm32f4xx_hal_flash.c **** /**
 140:Platform/STM32F4xx/drivers/STM32F4xx_HAL_Driver/Src/stm32f4xx_hal_flash.c ****   * @}
 141:Platform/STM32F4xx/drivers/STM32F4xx_HAL_Driver/Src/stm32f4xx_hal_flash.c ****   */
 142:Platform/STM32F4xx/drivers/STM32F4xx_HAL_Driver/Src/stm32f4xx_hal_flash.c **** 
 143:Platform/STM32F4xx/drivers/STM32F4xx_HAL_Driver/Src/stm32f4xx_hal_flash.c **** /* Exported functions --------------------------------------------------------*/
 144:Platform/STM32F4xx/drivers/STM32F4xx_HAL_Driver/Src/stm32f4xx_hal_flash.c **** /** @defgroup FLASH_Exported_Functions FLASH Exported Functions
 145:Platform/STM32F4xx/drivers/STM32F4xx_HAL_Driver/Src/stm32f4xx_hal_flash.c ****   * @{
 146:Platform/STM32F4xx/drivers/STM32F4xx_HAL_Driver/Src/stm32f4xx_hal_flash.c ****   */
ARM GAS  /tmp/ccnX3E2Z.s 			page 4


 147:Platform/STM32F4xx/drivers/STM32F4xx_HAL_Driver/Src/stm32f4xx_hal_flash.c ****   
 148:Platform/STM32F4xx/drivers/STM32F4xx_HAL_Driver/Src/stm32f4xx_hal_flash.c **** /** @defgroup FLASH_Exported_Functions_Group1 Programming operation functions 
 149:Platform/STM32F4xx/drivers/STM32F4xx_HAL_Driver/Src/stm32f4xx_hal_flash.c ****  *  @brief   Programming operation functions 
 150:Platform/STM32F4xx/drivers/STM32F4xx_HAL_Driver/Src/stm32f4xx_hal_flash.c ****  *
 151:Platform/STM32F4xx/drivers/STM32F4xx_HAL_Driver/Src/stm32f4xx_hal_flash.c **** @verbatim   
 152:Platform/STM32F4xx/drivers/STM32F4xx_HAL_Driver/Src/stm32f4xx_hal_flash.c ****  ===============================================================================
 153:Platform/STM32F4xx/drivers/STM32F4xx_HAL_Driver/Src/stm32f4xx_hal_flash.c ****                   ##### Programming operation functions #####
 154:Platform/STM32F4xx/drivers/STM32F4xx_HAL_Driver/Src/stm32f4xx_hal_flash.c ****  ===============================================================================  
 155:Platform/STM32F4xx/drivers/STM32F4xx_HAL_Driver/Src/stm32f4xx_hal_flash.c ****     [..]
 156:Platform/STM32F4xx/drivers/STM32F4xx_HAL_Driver/Src/stm32f4xx_hal_flash.c ****     This subsection provides a set of functions allowing to manage the FLASH 
 157:Platform/STM32F4xx/drivers/STM32F4xx_HAL_Driver/Src/stm32f4xx_hal_flash.c ****     program operations.
 158:Platform/STM32F4xx/drivers/STM32F4xx_HAL_Driver/Src/stm32f4xx_hal_flash.c **** 
 159:Platform/STM32F4xx/drivers/STM32F4xx_HAL_Driver/Src/stm32f4xx_hal_flash.c **** @endverbatim
 160:Platform/STM32F4xx/drivers/STM32F4xx_HAL_Driver/Src/stm32f4xx_hal_flash.c ****   * @{
 161:Platform/STM32F4xx/drivers/STM32F4xx_HAL_Driver/Src/stm32f4xx_hal_flash.c ****   */
 162:Platform/STM32F4xx/drivers/STM32F4xx_HAL_Driver/Src/stm32f4xx_hal_flash.c **** 
 163:Platform/STM32F4xx/drivers/STM32F4xx_HAL_Driver/Src/stm32f4xx_hal_flash.c **** /**
 164:Platform/STM32F4xx/drivers/STM32F4xx_HAL_Driver/Src/stm32f4xx_hal_flash.c ****   * @brief  Program byte, halfword, word or double word at a specified address
 165:Platform/STM32F4xx/drivers/STM32F4xx_HAL_Driver/Src/stm32f4xx_hal_flash.c ****   * @param  TypeProgram  Indicate the way to program at a specified address.
 166:Platform/STM32F4xx/drivers/STM32F4xx_HAL_Driver/Src/stm32f4xx_hal_flash.c ****   *                           This parameter can be a value of @ref FLASH_Type_Program
 167:Platform/STM32F4xx/drivers/STM32F4xx_HAL_Driver/Src/stm32f4xx_hal_flash.c ****   * @param  Address  specifies the address to be programmed.
 168:Platform/STM32F4xx/drivers/STM32F4xx_HAL_Driver/Src/stm32f4xx_hal_flash.c ****   * @param  Data specifies the data to be programmed
 169:Platform/STM32F4xx/drivers/STM32F4xx_HAL_Driver/Src/stm32f4xx_hal_flash.c ****   * 
 170:Platform/STM32F4xx/drivers/STM32F4xx_HAL_Driver/Src/stm32f4xx_hal_flash.c ****   * @retval HAL_StatusTypeDef HAL Status
 171:Platform/STM32F4xx/drivers/STM32F4xx_HAL_Driver/Src/stm32f4xx_hal_flash.c ****   */
 172:Platform/STM32F4xx/drivers/STM32F4xx_HAL_Driver/Src/stm32f4xx_hal_flash.c **** HAL_StatusTypeDef HAL_FLASH_Program(uint32_t TypeProgram, uint32_t Address, uint64_t Data)
 173:Platform/STM32F4xx/drivers/STM32F4xx_HAL_Driver/Src/stm32f4xx_hal_flash.c **** {
 174:Platform/STM32F4xx/drivers/STM32F4xx_HAL_Driver/Src/stm32f4xx_hal_flash.c ****   HAL_StatusTypeDef status = HAL_ERROR;
 175:Platform/STM32F4xx/drivers/STM32F4xx_HAL_Driver/Src/stm32f4xx_hal_flash.c ****   
 176:Platform/STM32F4xx/drivers/STM32F4xx_HAL_Driver/Src/stm32f4xx_hal_flash.c ****   /* Process Locked */
 177:Platform/STM32F4xx/drivers/STM32F4xx_HAL_Driver/Src/stm32f4xx_hal_flash.c ****   __HAL_LOCK(&pFlash);
 178:Platform/STM32F4xx/drivers/STM32F4xx_HAL_Driver/Src/stm32f4xx_hal_flash.c ****   
 179:Platform/STM32F4xx/drivers/STM32F4xx_HAL_Driver/Src/stm32f4xx_hal_flash.c ****   /* Check the parameters */
 180:Platform/STM32F4xx/drivers/STM32F4xx_HAL_Driver/Src/stm32f4xx_hal_flash.c ****   assert_param(IS_FLASH_TYPEPROGRAM(TypeProgram));
 181:Platform/STM32F4xx/drivers/STM32F4xx_HAL_Driver/Src/stm32f4xx_hal_flash.c ****   
 182:Platform/STM32F4xx/drivers/STM32F4xx_HAL_Driver/Src/stm32f4xx_hal_flash.c ****   /* Wait for last operation to be completed */
 183:Platform/STM32F4xx/drivers/STM32F4xx_HAL_Driver/Src/stm32f4xx_hal_flash.c ****   status = FLASH_WaitForLastOperation((uint32_t)FLASH_TIMEOUT_VALUE);
 184:Platform/STM32F4xx/drivers/STM32F4xx_HAL_Driver/Src/stm32f4xx_hal_flash.c ****   
 185:Platform/STM32F4xx/drivers/STM32F4xx_HAL_Driver/Src/stm32f4xx_hal_flash.c ****   if(status == HAL_OK)
 186:Platform/STM32F4xx/drivers/STM32F4xx_HAL_Driver/Src/stm32f4xx_hal_flash.c ****   {
 187:Platform/STM32F4xx/drivers/STM32F4xx_HAL_Driver/Src/stm32f4xx_hal_flash.c ****     if(TypeProgram == FLASH_TYPEPROGRAM_BYTE)
 188:Platform/STM32F4xx/drivers/STM32F4xx_HAL_Driver/Src/stm32f4xx_hal_flash.c ****     {
 189:Platform/STM32F4xx/drivers/STM32F4xx_HAL_Driver/Src/stm32f4xx_hal_flash.c ****       /*Program byte (8-bit) at a specified address.*/
 190:Platform/STM32F4xx/drivers/STM32F4xx_HAL_Driver/Src/stm32f4xx_hal_flash.c ****       FLASH_Program_Byte(Address, (uint8_t) Data);
 191:Platform/STM32F4xx/drivers/STM32F4xx_HAL_Driver/Src/stm32f4xx_hal_flash.c ****     }
 192:Platform/STM32F4xx/drivers/STM32F4xx_HAL_Driver/Src/stm32f4xx_hal_flash.c ****     else if(TypeProgram == FLASH_TYPEPROGRAM_HALFWORD)
 193:Platform/STM32F4xx/drivers/STM32F4xx_HAL_Driver/Src/stm32f4xx_hal_flash.c ****     {
 194:Platform/STM32F4xx/drivers/STM32F4xx_HAL_Driver/Src/stm32f4xx_hal_flash.c ****       /*Program halfword (16-bit) at a specified address.*/
 195:Platform/STM32F4xx/drivers/STM32F4xx_HAL_Driver/Src/stm32f4xx_hal_flash.c ****       FLASH_Program_HalfWord(Address, (uint16_t) Data);
 196:Platform/STM32F4xx/drivers/STM32F4xx_HAL_Driver/Src/stm32f4xx_hal_flash.c ****     }
 197:Platform/STM32F4xx/drivers/STM32F4xx_HAL_Driver/Src/stm32f4xx_hal_flash.c ****     else if(TypeProgram == FLASH_TYPEPROGRAM_WORD)
 198:Platform/STM32F4xx/drivers/STM32F4xx_HAL_Driver/Src/stm32f4xx_hal_flash.c ****     {
 199:Platform/STM32F4xx/drivers/STM32F4xx_HAL_Driver/Src/stm32f4xx_hal_flash.c ****       /*Program word (32-bit) at a specified address.*/
 200:Platform/STM32F4xx/drivers/STM32F4xx_HAL_Driver/Src/stm32f4xx_hal_flash.c ****       FLASH_Program_Word(Address, (uint32_t) Data);
 201:Platform/STM32F4xx/drivers/STM32F4xx_HAL_Driver/Src/stm32f4xx_hal_flash.c ****     }
 202:Platform/STM32F4xx/drivers/STM32F4xx_HAL_Driver/Src/stm32f4xx_hal_flash.c ****     else
 203:Platform/STM32F4xx/drivers/STM32F4xx_HAL_Driver/Src/stm32f4xx_hal_flash.c ****     {
ARM GAS  /tmp/ccnX3E2Z.s 			page 5


 204:Platform/STM32F4xx/drivers/STM32F4xx_HAL_Driver/Src/stm32f4xx_hal_flash.c ****       /*Program double word (64-bit) at a specified address.*/
 205:Platform/STM32F4xx/drivers/STM32F4xx_HAL_Driver/Src/stm32f4xx_hal_flash.c ****       FLASH_Program_DoubleWord(Address, Data);
 206:Platform/STM32F4xx/drivers/STM32F4xx_HAL_Driver/Src/stm32f4xx_hal_flash.c ****     }
 207:Platform/STM32F4xx/drivers/STM32F4xx_HAL_Driver/Src/stm32f4xx_hal_flash.c ****     
 208:Platform/STM32F4xx/drivers/STM32F4xx_HAL_Driver/Src/stm32f4xx_hal_flash.c ****     /* Wait for last operation to be completed */
 209:Platform/STM32F4xx/drivers/STM32F4xx_HAL_Driver/Src/stm32f4xx_hal_flash.c ****     status = FLASH_WaitForLastOperation((uint32_t)FLASH_TIMEOUT_VALUE);
 210:Platform/STM32F4xx/drivers/STM32F4xx_HAL_Driver/Src/stm32f4xx_hal_flash.c ****     
 211:Platform/STM32F4xx/drivers/STM32F4xx_HAL_Driver/Src/stm32f4xx_hal_flash.c ****     /* If the program operation is completed, disable the PG Bit */
 212:Platform/STM32F4xx/drivers/STM32F4xx_HAL_Driver/Src/stm32f4xx_hal_flash.c ****     FLASH->CR &= (~FLASH_CR_PG);  
 213:Platform/STM32F4xx/drivers/STM32F4xx_HAL_Driver/Src/stm32f4xx_hal_flash.c ****   }
 214:Platform/STM32F4xx/drivers/STM32F4xx_HAL_Driver/Src/stm32f4xx_hal_flash.c ****   
 215:Platform/STM32F4xx/drivers/STM32F4xx_HAL_Driver/Src/stm32f4xx_hal_flash.c ****   /* Process Unlocked */
 216:Platform/STM32F4xx/drivers/STM32F4xx_HAL_Driver/Src/stm32f4xx_hal_flash.c ****   __HAL_UNLOCK(&pFlash);
 217:Platform/STM32F4xx/drivers/STM32F4xx_HAL_Driver/Src/stm32f4xx_hal_flash.c ****   
 218:Platform/STM32F4xx/drivers/STM32F4xx_HAL_Driver/Src/stm32f4xx_hal_flash.c ****   return status;
 219:Platform/STM32F4xx/drivers/STM32F4xx_HAL_Driver/Src/stm32f4xx_hal_flash.c **** }
 220:Platform/STM32F4xx/drivers/STM32F4xx_HAL_Driver/Src/stm32f4xx_hal_flash.c **** 
 221:Platform/STM32F4xx/drivers/STM32F4xx_HAL_Driver/Src/stm32f4xx_hal_flash.c **** /**
 222:Platform/STM32F4xx/drivers/STM32F4xx_HAL_Driver/Src/stm32f4xx_hal_flash.c ****   * @brief   Program byte, halfword, word or double word at a specified address  with interrupt ena
 223:Platform/STM32F4xx/drivers/STM32F4xx_HAL_Driver/Src/stm32f4xx_hal_flash.c ****   * @param  TypeProgram  Indicate the way to program at a specified address.
 224:Platform/STM32F4xx/drivers/STM32F4xx_HAL_Driver/Src/stm32f4xx_hal_flash.c ****   *                           This parameter can be a value of @ref FLASH_Type_Program
 225:Platform/STM32F4xx/drivers/STM32F4xx_HAL_Driver/Src/stm32f4xx_hal_flash.c ****   * @param  Address  specifies the address to be programmed.
 226:Platform/STM32F4xx/drivers/STM32F4xx_HAL_Driver/Src/stm32f4xx_hal_flash.c ****   * @param  Data specifies the data to be programmed
 227:Platform/STM32F4xx/drivers/STM32F4xx_HAL_Driver/Src/stm32f4xx_hal_flash.c ****   * 
 228:Platform/STM32F4xx/drivers/STM32F4xx_HAL_Driver/Src/stm32f4xx_hal_flash.c ****   * @retval HAL Status
 229:Platform/STM32F4xx/drivers/STM32F4xx_HAL_Driver/Src/stm32f4xx_hal_flash.c ****   */
 230:Platform/STM32F4xx/drivers/STM32F4xx_HAL_Driver/Src/stm32f4xx_hal_flash.c **** HAL_StatusTypeDef HAL_FLASH_Program_IT(uint32_t TypeProgram, uint32_t Address, uint64_t Data)
 231:Platform/STM32F4xx/drivers/STM32F4xx_HAL_Driver/Src/stm32f4xx_hal_flash.c **** {
 232:Platform/STM32F4xx/drivers/STM32F4xx_HAL_Driver/Src/stm32f4xx_hal_flash.c ****   HAL_StatusTypeDef status = HAL_OK;
 233:Platform/STM32F4xx/drivers/STM32F4xx_HAL_Driver/Src/stm32f4xx_hal_flash.c ****   
 234:Platform/STM32F4xx/drivers/STM32F4xx_HAL_Driver/Src/stm32f4xx_hal_flash.c ****   /* Process Locked */
 235:Platform/STM32F4xx/drivers/STM32F4xx_HAL_Driver/Src/stm32f4xx_hal_flash.c ****   __HAL_LOCK(&pFlash);
 236:Platform/STM32F4xx/drivers/STM32F4xx_HAL_Driver/Src/stm32f4xx_hal_flash.c **** 
 237:Platform/STM32F4xx/drivers/STM32F4xx_HAL_Driver/Src/stm32f4xx_hal_flash.c ****   /* Check the parameters */
 238:Platform/STM32F4xx/drivers/STM32F4xx_HAL_Driver/Src/stm32f4xx_hal_flash.c ****   assert_param(IS_FLASH_TYPEPROGRAM(TypeProgram));
 239:Platform/STM32F4xx/drivers/STM32F4xx_HAL_Driver/Src/stm32f4xx_hal_flash.c **** 
 240:Platform/STM32F4xx/drivers/STM32F4xx_HAL_Driver/Src/stm32f4xx_hal_flash.c ****   /* Enable End of FLASH Operation interrupt */
 241:Platform/STM32F4xx/drivers/STM32F4xx_HAL_Driver/Src/stm32f4xx_hal_flash.c ****   __HAL_FLASH_ENABLE_IT(FLASH_IT_EOP);
 242:Platform/STM32F4xx/drivers/STM32F4xx_HAL_Driver/Src/stm32f4xx_hal_flash.c ****   
 243:Platform/STM32F4xx/drivers/STM32F4xx_HAL_Driver/Src/stm32f4xx_hal_flash.c ****   /* Enable Error source interrupt */
 244:Platform/STM32F4xx/drivers/STM32F4xx_HAL_Driver/Src/stm32f4xx_hal_flash.c ****   __HAL_FLASH_ENABLE_IT(FLASH_IT_ERR);
 245:Platform/STM32F4xx/drivers/STM32F4xx_HAL_Driver/Src/stm32f4xx_hal_flash.c **** 
 246:Platform/STM32F4xx/drivers/STM32F4xx_HAL_Driver/Src/stm32f4xx_hal_flash.c ****   pFlash.ProcedureOnGoing = FLASH_PROC_PROGRAM;
 247:Platform/STM32F4xx/drivers/STM32F4xx_HAL_Driver/Src/stm32f4xx_hal_flash.c ****   pFlash.Address = Address;
 248:Platform/STM32F4xx/drivers/STM32F4xx_HAL_Driver/Src/stm32f4xx_hal_flash.c **** 
 249:Platform/STM32F4xx/drivers/STM32F4xx_HAL_Driver/Src/stm32f4xx_hal_flash.c ****   if(TypeProgram == FLASH_TYPEPROGRAM_BYTE)
 250:Platform/STM32F4xx/drivers/STM32F4xx_HAL_Driver/Src/stm32f4xx_hal_flash.c ****   {
 251:Platform/STM32F4xx/drivers/STM32F4xx_HAL_Driver/Src/stm32f4xx_hal_flash.c ****     /*Program byte (8-bit) at a specified address.*/
 252:Platform/STM32F4xx/drivers/STM32F4xx_HAL_Driver/Src/stm32f4xx_hal_flash.c ****       FLASH_Program_Byte(Address, (uint8_t) Data);
 253:Platform/STM32F4xx/drivers/STM32F4xx_HAL_Driver/Src/stm32f4xx_hal_flash.c ****   }
 254:Platform/STM32F4xx/drivers/STM32F4xx_HAL_Driver/Src/stm32f4xx_hal_flash.c ****   else if(TypeProgram == FLASH_TYPEPROGRAM_HALFWORD)
 255:Platform/STM32F4xx/drivers/STM32F4xx_HAL_Driver/Src/stm32f4xx_hal_flash.c ****   {
 256:Platform/STM32F4xx/drivers/STM32F4xx_HAL_Driver/Src/stm32f4xx_hal_flash.c ****     /*Program halfword (16-bit) at a specified address.*/
 257:Platform/STM32F4xx/drivers/STM32F4xx_HAL_Driver/Src/stm32f4xx_hal_flash.c ****     FLASH_Program_HalfWord(Address, (uint16_t) Data);
 258:Platform/STM32F4xx/drivers/STM32F4xx_HAL_Driver/Src/stm32f4xx_hal_flash.c ****   }
 259:Platform/STM32F4xx/drivers/STM32F4xx_HAL_Driver/Src/stm32f4xx_hal_flash.c ****   else if(TypeProgram == FLASH_TYPEPROGRAM_WORD)
 260:Platform/STM32F4xx/drivers/STM32F4xx_HAL_Driver/Src/stm32f4xx_hal_flash.c ****   {
ARM GAS  /tmp/ccnX3E2Z.s 			page 6


 261:Platform/STM32F4xx/drivers/STM32F4xx_HAL_Driver/Src/stm32f4xx_hal_flash.c ****     /*Program word (32-bit) at a specified address.*/
 262:Platform/STM32F4xx/drivers/STM32F4xx_HAL_Driver/Src/stm32f4xx_hal_flash.c ****     FLASH_Program_Word(Address, (uint32_t) Data);
 263:Platform/STM32F4xx/drivers/STM32F4xx_HAL_Driver/Src/stm32f4xx_hal_flash.c ****   }
 264:Platform/STM32F4xx/drivers/STM32F4xx_HAL_Driver/Src/stm32f4xx_hal_flash.c ****   else
 265:Platform/STM32F4xx/drivers/STM32F4xx_HAL_Driver/Src/stm32f4xx_hal_flash.c ****   {
 266:Platform/STM32F4xx/drivers/STM32F4xx_HAL_Driver/Src/stm32f4xx_hal_flash.c ****     /*Program double word (64-bit) at a specified address.*/
 267:Platform/STM32F4xx/drivers/STM32F4xx_HAL_Driver/Src/stm32f4xx_hal_flash.c ****     FLASH_Program_DoubleWord(Address, Data);
 268:Platform/STM32F4xx/drivers/STM32F4xx_HAL_Driver/Src/stm32f4xx_hal_flash.c ****   }
 269:Platform/STM32F4xx/drivers/STM32F4xx_HAL_Driver/Src/stm32f4xx_hal_flash.c **** 
 270:Platform/STM32F4xx/drivers/STM32F4xx_HAL_Driver/Src/stm32f4xx_hal_flash.c ****   return status;
 271:Platform/STM32F4xx/drivers/STM32F4xx_HAL_Driver/Src/stm32f4xx_hal_flash.c **** }
 272:Platform/STM32F4xx/drivers/STM32F4xx_HAL_Driver/Src/stm32f4xx_hal_flash.c **** 
 273:Platform/STM32F4xx/drivers/STM32F4xx_HAL_Driver/Src/stm32f4xx_hal_flash.c **** /**
 274:Platform/STM32F4xx/drivers/STM32F4xx_HAL_Driver/Src/stm32f4xx_hal_flash.c ****   * @brief This function handles FLASH interrupt request.
 275:Platform/STM32F4xx/drivers/STM32F4xx_HAL_Driver/Src/stm32f4xx_hal_flash.c ****   * @retval None
 276:Platform/STM32F4xx/drivers/STM32F4xx_HAL_Driver/Src/stm32f4xx_hal_flash.c ****   */
 277:Platform/STM32F4xx/drivers/STM32F4xx_HAL_Driver/Src/stm32f4xx_hal_flash.c **** void HAL_FLASH_IRQHandler(void)
 278:Platform/STM32F4xx/drivers/STM32F4xx_HAL_Driver/Src/stm32f4xx_hal_flash.c **** {
 279:Platform/STM32F4xx/drivers/STM32F4xx_HAL_Driver/Src/stm32f4xx_hal_flash.c ****   uint32_t addresstmp = 0U;
 280:Platform/STM32F4xx/drivers/STM32F4xx_HAL_Driver/Src/stm32f4xx_hal_flash.c ****   
 281:Platform/STM32F4xx/drivers/STM32F4xx_HAL_Driver/Src/stm32f4xx_hal_flash.c ****   /* Check FLASH operation error flags */
 282:Platform/STM32F4xx/drivers/STM32F4xx_HAL_Driver/Src/stm32f4xx_hal_flash.c **** #if defined(FLASH_SR_RDERR) 
 283:Platform/STM32F4xx/drivers/STM32F4xx_HAL_Driver/Src/stm32f4xx_hal_flash.c ****   if(__HAL_FLASH_GET_FLAG((FLASH_FLAG_OPERR | FLASH_FLAG_WRPERR | FLASH_FLAG_PGAERR | \
 284:Platform/STM32F4xx/drivers/STM32F4xx_HAL_Driver/Src/stm32f4xx_hal_flash.c ****     FLASH_FLAG_PGPERR | FLASH_FLAG_PGSERR | FLASH_FLAG_RDERR)) != RESET)
 285:Platform/STM32F4xx/drivers/STM32F4xx_HAL_Driver/Src/stm32f4xx_hal_flash.c **** #else
 286:Platform/STM32F4xx/drivers/STM32F4xx_HAL_Driver/Src/stm32f4xx_hal_flash.c ****   if(__HAL_FLASH_GET_FLAG((FLASH_FLAG_OPERR | FLASH_FLAG_WRPERR | FLASH_FLAG_PGAERR | \
 287:Platform/STM32F4xx/drivers/STM32F4xx_HAL_Driver/Src/stm32f4xx_hal_flash.c ****     FLASH_FLAG_PGPERR | FLASH_FLAG_PGSERR)) != RESET)
 288:Platform/STM32F4xx/drivers/STM32F4xx_HAL_Driver/Src/stm32f4xx_hal_flash.c **** #endif /* FLASH_SR_RDERR */
 289:Platform/STM32F4xx/drivers/STM32F4xx_HAL_Driver/Src/stm32f4xx_hal_flash.c ****   {
 290:Platform/STM32F4xx/drivers/STM32F4xx_HAL_Driver/Src/stm32f4xx_hal_flash.c ****     if(pFlash.ProcedureOnGoing == FLASH_PROC_SECTERASE)
 291:Platform/STM32F4xx/drivers/STM32F4xx_HAL_Driver/Src/stm32f4xx_hal_flash.c ****     {
 292:Platform/STM32F4xx/drivers/STM32F4xx_HAL_Driver/Src/stm32f4xx_hal_flash.c ****       /*return the faulty sector*/
 293:Platform/STM32F4xx/drivers/STM32F4xx_HAL_Driver/Src/stm32f4xx_hal_flash.c ****       addresstmp = pFlash.Sector;
 294:Platform/STM32F4xx/drivers/STM32F4xx_HAL_Driver/Src/stm32f4xx_hal_flash.c ****       pFlash.Sector = 0xFFFFFFFFU;
 295:Platform/STM32F4xx/drivers/STM32F4xx_HAL_Driver/Src/stm32f4xx_hal_flash.c ****     }
 296:Platform/STM32F4xx/drivers/STM32F4xx_HAL_Driver/Src/stm32f4xx_hal_flash.c ****     else if(pFlash.ProcedureOnGoing == FLASH_PROC_MASSERASE)
 297:Platform/STM32F4xx/drivers/STM32F4xx_HAL_Driver/Src/stm32f4xx_hal_flash.c ****     {
 298:Platform/STM32F4xx/drivers/STM32F4xx_HAL_Driver/Src/stm32f4xx_hal_flash.c ****       /*return the faulty bank*/
 299:Platform/STM32F4xx/drivers/STM32F4xx_HAL_Driver/Src/stm32f4xx_hal_flash.c ****       addresstmp = pFlash.Bank;
 300:Platform/STM32F4xx/drivers/STM32F4xx_HAL_Driver/Src/stm32f4xx_hal_flash.c ****     }
 301:Platform/STM32F4xx/drivers/STM32F4xx_HAL_Driver/Src/stm32f4xx_hal_flash.c ****     else
 302:Platform/STM32F4xx/drivers/STM32F4xx_HAL_Driver/Src/stm32f4xx_hal_flash.c ****     {
 303:Platform/STM32F4xx/drivers/STM32F4xx_HAL_Driver/Src/stm32f4xx_hal_flash.c ****       /*return the faulty address*/
 304:Platform/STM32F4xx/drivers/STM32F4xx_HAL_Driver/Src/stm32f4xx_hal_flash.c ****       addresstmp = pFlash.Address;
 305:Platform/STM32F4xx/drivers/STM32F4xx_HAL_Driver/Src/stm32f4xx_hal_flash.c ****     }
 306:Platform/STM32F4xx/drivers/STM32F4xx_HAL_Driver/Src/stm32f4xx_hal_flash.c ****     
 307:Platform/STM32F4xx/drivers/STM32F4xx_HAL_Driver/Src/stm32f4xx_hal_flash.c ****     /*Save the Error code*/
 308:Platform/STM32F4xx/drivers/STM32F4xx_HAL_Driver/Src/stm32f4xx_hal_flash.c ****     FLASH_SetErrorCode();
 309:Platform/STM32F4xx/drivers/STM32F4xx_HAL_Driver/Src/stm32f4xx_hal_flash.c ****     
 310:Platform/STM32F4xx/drivers/STM32F4xx_HAL_Driver/Src/stm32f4xx_hal_flash.c ****     /* FLASH error interrupt user callback */
 311:Platform/STM32F4xx/drivers/STM32F4xx_HAL_Driver/Src/stm32f4xx_hal_flash.c ****     HAL_FLASH_OperationErrorCallback(addresstmp);
 312:Platform/STM32F4xx/drivers/STM32F4xx_HAL_Driver/Src/stm32f4xx_hal_flash.c ****     
 313:Platform/STM32F4xx/drivers/STM32F4xx_HAL_Driver/Src/stm32f4xx_hal_flash.c ****     /*Stop the procedure ongoing*/
 314:Platform/STM32F4xx/drivers/STM32F4xx_HAL_Driver/Src/stm32f4xx_hal_flash.c ****     pFlash.ProcedureOnGoing = FLASH_PROC_NONE;
 315:Platform/STM32F4xx/drivers/STM32F4xx_HAL_Driver/Src/stm32f4xx_hal_flash.c ****   }
 316:Platform/STM32F4xx/drivers/STM32F4xx_HAL_Driver/Src/stm32f4xx_hal_flash.c ****   
 317:Platform/STM32F4xx/drivers/STM32F4xx_HAL_Driver/Src/stm32f4xx_hal_flash.c ****   /* Check FLASH End of Operation flag  */
ARM GAS  /tmp/ccnX3E2Z.s 			page 7


 318:Platform/STM32F4xx/drivers/STM32F4xx_HAL_Driver/Src/stm32f4xx_hal_flash.c ****   if(__HAL_FLASH_GET_FLAG(FLASH_FLAG_EOP) != RESET)
 319:Platform/STM32F4xx/drivers/STM32F4xx_HAL_Driver/Src/stm32f4xx_hal_flash.c ****   {
 320:Platform/STM32F4xx/drivers/STM32F4xx_HAL_Driver/Src/stm32f4xx_hal_flash.c ****     /* Clear FLASH End of Operation pending bit */
 321:Platform/STM32F4xx/drivers/STM32F4xx_HAL_Driver/Src/stm32f4xx_hal_flash.c ****     __HAL_FLASH_CLEAR_FLAG(FLASH_FLAG_EOP);
 322:Platform/STM32F4xx/drivers/STM32F4xx_HAL_Driver/Src/stm32f4xx_hal_flash.c ****     
 323:Platform/STM32F4xx/drivers/STM32F4xx_HAL_Driver/Src/stm32f4xx_hal_flash.c ****     if(pFlash.ProcedureOnGoing == FLASH_PROC_SECTERASE)
 324:Platform/STM32F4xx/drivers/STM32F4xx_HAL_Driver/Src/stm32f4xx_hal_flash.c ****     {
 325:Platform/STM32F4xx/drivers/STM32F4xx_HAL_Driver/Src/stm32f4xx_hal_flash.c ****       /*Nb of sector to erased can be decreased*/
 326:Platform/STM32F4xx/drivers/STM32F4xx_HAL_Driver/Src/stm32f4xx_hal_flash.c ****       pFlash.NbSectorsToErase--;
 327:Platform/STM32F4xx/drivers/STM32F4xx_HAL_Driver/Src/stm32f4xx_hal_flash.c ****       
 328:Platform/STM32F4xx/drivers/STM32F4xx_HAL_Driver/Src/stm32f4xx_hal_flash.c ****       /* Check if there are still sectors to erase*/
 329:Platform/STM32F4xx/drivers/STM32F4xx_HAL_Driver/Src/stm32f4xx_hal_flash.c ****       if(pFlash.NbSectorsToErase != 0U)
 330:Platform/STM32F4xx/drivers/STM32F4xx_HAL_Driver/Src/stm32f4xx_hal_flash.c ****       {
 331:Platform/STM32F4xx/drivers/STM32F4xx_HAL_Driver/Src/stm32f4xx_hal_flash.c ****         addresstmp = pFlash.Sector;
 332:Platform/STM32F4xx/drivers/STM32F4xx_HAL_Driver/Src/stm32f4xx_hal_flash.c ****         /*Indicate user which sector has been erased*/
 333:Platform/STM32F4xx/drivers/STM32F4xx_HAL_Driver/Src/stm32f4xx_hal_flash.c ****         HAL_FLASH_EndOfOperationCallback(addresstmp);
 334:Platform/STM32F4xx/drivers/STM32F4xx_HAL_Driver/Src/stm32f4xx_hal_flash.c ****         
 335:Platform/STM32F4xx/drivers/STM32F4xx_HAL_Driver/Src/stm32f4xx_hal_flash.c ****         /*Increment sector number*/
 336:Platform/STM32F4xx/drivers/STM32F4xx_HAL_Driver/Src/stm32f4xx_hal_flash.c ****         pFlash.Sector++;
 337:Platform/STM32F4xx/drivers/STM32F4xx_HAL_Driver/Src/stm32f4xx_hal_flash.c ****         addresstmp = pFlash.Sector;
 338:Platform/STM32F4xx/drivers/STM32F4xx_HAL_Driver/Src/stm32f4xx_hal_flash.c ****         FLASH_Erase_Sector(addresstmp, pFlash.VoltageForErase);
 339:Platform/STM32F4xx/drivers/STM32F4xx_HAL_Driver/Src/stm32f4xx_hal_flash.c ****       }
 340:Platform/STM32F4xx/drivers/STM32F4xx_HAL_Driver/Src/stm32f4xx_hal_flash.c ****       else
 341:Platform/STM32F4xx/drivers/STM32F4xx_HAL_Driver/Src/stm32f4xx_hal_flash.c ****       {
 342:Platform/STM32F4xx/drivers/STM32F4xx_HAL_Driver/Src/stm32f4xx_hal_flash.c ****         /*No more sectors to Erase, user callback can be called.*/
 343:Platform/STM32F4xx/drivers/STM32F4xx_HAL_Driver/Src/stm32f4xx_hal_flash.c ****         /*Reset Sector and stop Erase sectors procedure*/
 344:Platform/STM32F4xx/drivers/STM32F4xx_HAL_Driver/Src/stm32f4xx_hal_flash.c ****         pFlash.Sector = addresstmp = 0xFFFFFFFFU;
 345:Platform/STM32F4xx/drivers/STM32F4xx_HAL_Driver/Src/stm32f4xx_hal_flash.c ****         pFlash.ProcedureOnGoing = FLASH_PROC_NONE;
 346:Platform/STM32F4xx/drivers/STM32F4xx_HAL_Driver/Src/stm32f4xx_hal_flash.c ****         
 347:Platform/STM32F4xx/drivers/STM32F4xx_HAL_Driver/Src/stm32f4xx_hal_flash.c ****         /* Flush the caches to be sure of the data consistency */
 348:Platform/STM32F4xx/drivers/STM32F4xx_HAL_Driver/Src/stm32f4xx_hal_flash.c ****         FLASH_FlushCaches() ;
 349:Platform/STM32F4xx/drivers/STM32F4xx_HAL_Driver/Src/stm32f4xx_hal_flash.c ****                 
 350:Platform/STM32F4xx/drivers/STM32F4xx_HAL_Driver/Src/stm32f4xx_hal_flash.c ****         /* FLASH EOP interrupt user callback */
 351:Platform/STM32F4xx/drivers/STM32F4xx_HAL_Driver/Src/stm32f4xx_hal_flash.c ****         HAL_FLASH_EndOfOperationCallback(addresstmp);
 352:Platform/STM32F4xx/drivers/STM32F4xx_HAL_Driver/Src/stm32f4xx_hal_flash.c ****       }
 353:Platform/STM32F4xx/drivers/STM32F4xx_HAL_Driver/Src/stm32f4xx_hal_flash.c ****     }
 354:Platform/STM32F4xx/drivers/STM32F4xx_HAL_Driver/Src/stm32f4xx_hal_flash.c ****     else 
 355:Platform/STM32F4xx/drivers/STM32F4xx_HAL_Driver/Src/stm32f4xx_hal_flash.c ****     {
 356:Platform/STM32F4xx/drivers/STM32F4xx_HAL_Driver/Src/stm32f4xx_hal_flash.c ****       if(pFlash.ProcedureOnGoing == FLASH_PROC_MASSERASE) 
 357:Platform/STM32F4xx/drivers/STM32F4xx_HAL_Driver/Src/stm32f4xx_hal_flash.c ****       {
 358:Platform/STM32F4xx/drivers/STM32F4xx_HAL_Driver/Src/stm32f4xx_hal_flash.c ****         /* MassErase ended. Return the selected bank */
 359:Platform/STM32F4xx/drivers/STM32F4xx_HAL_Driver/Src/stm32f4xx_hal_flash.c ****         /* Flush the caches to be sure of the data consistency */
 360:Platform/STM32F4xx/drivers/STM32F4xx_HAL_Driver/Src/stm32f4xx_hal_flash.c ****         FLASH_FlushCaches() ;
 361:Platform/STM32F4xx/drivers/STM32F4xx_HAL_Driver/Src/stm32f4xx_hal_flash.c **** 
 362:Platform/STM32F4xx/drivers/STM32F4xx_HAL_Driver/Src/stm32f4xx_hal_flash.c ****         /* FLASH EOP interrupt user callback */
 363:Platform/STM32F4xx/drivers/STM32F4xx_HAL_Driver/Src/stm32f4xx_hal_flash.c ****         HAL_FLASH_EndOfOperationCallback(pFlash.Bank);
 364:Platform/STM32F4xx/drivers/STM32F4xx_HAL_Driver/Src/stm32f4xx_hal_flash.c ****       }
 365:Platform/STM32F4xx/drivers/STM32F4xx_HAL_Driver/Src/stm32f4xx_hal_flash.c ****       else
 366:Platform/STM32F4xx/drivers/STM32F4xx_HAL_Driver/Src/stm32f4xx_hal_flash.c ****       {
 367:Platform/STM32F4xx/drivers/STM32F4xx_HAL_Driver/Src/stm32f4xx_hal_flash.c ****         /*Program ended. Return the selected address*/
 368:Platform/STM32F4xx/drivers/STM32F4xx_HAL_Driver/Src/stm32f4xx_hal_flash.c ****         /* FLASH EOP interrupt user callback */
 369:Platform/STM32F4xx/drivers/STM32F4xx_HAL_Driver/Src/stm32f4xx_hal_flash.c ****         HAL_FLASH_EndOfOperationCallback(pFlash.Address);
 370:Platform/STM32F4xx/drivers/STM32F4xx_HAL_Driver/Src/stm32f4xx_hal_flash.c ****       }
 371:Platform/STM32F4xx/drivers/STM32F4xx_HAL_Driver/Src/stm32f4xx_hal_flash.c ****       pFlash.ProcedureOnGoing = FLASH_PROC_NONE;
 372:Platform/STM32F4xx/drivers/STM32F4xx_HAL_Driver/Src/stm32f4xx_hal_flash.c ****     }
 373:Platform/STM32F4xx/drivers/STM32F4xx_HAL_Driver/Src/stm32f4xx_hal_flash.c ****   }
 374:Platform/STM32F4xx/drivers/STM32F4xx_HAL_Driver/Src/stm32f4xx_hal_flash.c ****   
ARM GAS  /tmp/ccnX3E2Z.s 			page 8


 375:Platform/STM32F4xx/drivers/STM32F4xx_HAL_Driver/Src/stm32f4xx_hal_flash.c ****   if(pFlash.ProcedureOnGoing == FLASH_PROC_NONE)
 376:Platform/STM32F4xx/drivers/STM32F4xx_HAL_Driver/Src/stm32f4xx_hal_flash.c ****   {
 377:Platform/STM32F4xx/drivers/STM32F4xx_HAL_Driver/Src/stm32f4xx_hal_flash.c ****     /* Operation is completed, disable the PG, SER, SNB and MER Bits */
 378:Platform/STM32F4xx/drivers/STM32F4xx_HAL_Driver/Src/stm32f4xx_hal_flash.c ****     CLEAR_BIT(FLASH->CR, (FLASH_CR_PG | FLASH_CR_SER | FLASH_CR_SNB | FLASH_MER_BIT));
 379:Platform/STM32F4xx/drivers/STM32F4xx_HAL_Driver/Src/stm32f4xx_hal_flash.c **** 
 380:Platform/STM32F4xx/drivers/STM32F4xx_HAL_Driver/Src/stm32f4xx_hal_flash.c ****     /* Disable End of FLASH Operation interrupt */
 381:Platform/STM32F4xx/drivers/STM32F4xx_HAL_Driver/Src/stm32f4xx_hal_flash.c ****     __HAL_FLASH_DISABLE_IT(FLASH_IT_EOP);
 382:Platform/STM32F4xx/drivers/STM32F4xx_HAL_Driver/Src/stm32f4xx_hal_flash.c ****     
 383:Platform/STM32F4xx/drivers/STM32F4xx_HAL_Driver/Src/stm32f4xx_hal_flash.c ****     /* Disable Error source interrupt */
 384:Platform/STM32F4xx/drivers/STM32F4xx_HAL_Driver/Src/stm32f4xx_hal_flash.c ****     __HAL_FLASH_DISABLE_IT(FLASH_IT_ERR);
 385:Platform/STM32F4xx/drivers/STM32F4xx_HAL_Driver/Src/stm32f4xx_hal_flash.c ****     
 386:Platform/STM32F4xx/drivers/STM32F4xx_HAL_Driver/Src/stm32f4xx_hal_flash.c ****     /* Process Unlocked */
 387:Platform/STM32F4xx/drivers/STM32F4xx_HAL_Driver/Src/stm32f4xx_hal_flash.c ****     __HAL_UNLOCK(&pFlash);
 388:Platform/STM32F4xx/drivers/STM32F4xx_HAL_Driver/Src/stm32f4xx_hal_flash.c ****   }
 389:Platform/STM32F4xx/drivers/STM32F4xx_HAL_Driver/Src/stm32f4xx_hal_flash.c **** }
 390:Platform/STM32F4xx/drivers/STM32F4xx_HAL_Driver/Src/stm32f4xx_hal_flash.c **** 
 391:Platform/STM32F4xx/drivers/STM32F4xx_HAL_Driver/Src/stm32f4xx_hal_flash.c **** /**
 392:Platform/STM32F4xx/drivers/STM32F4xx_HAL_Driver/Src/stm32f4xx_hal_flash.c ****   * @brief  FLASH end of operation interrupt callback
 393:Platform/STM32F4xx/drivers/STM32F4xx_HAL_Driver/Src/stm32f4xx_hal_flash.c ****   * @param  ReturnValue The value saved in this parameter depends on the ongoing procedure
 394:Platform/STM32F4xx/drivers/STM32F4xx_HAL_Driver/Src/stm32f4xx_hal_flash.c ****   *                  Mass Erase: Bank number which has been requested to erase
 395:Platform/STM32F4xx/drivers/STM32F4xx_HAL_Driver/Src/stm32f4xx_hal_flash.c ****   *                  Sectors Erase: Sector which has been erased 
 396:Platform/STM32F4xx/drivers/STM32F4xx_HAL_Driver/Src/stm32f4xx_hal_flash.c ****   *                    (if 0xFFFFFFFFU, it means that all the selected sectors have been erased)
 397:Platform/STM32F4xx/drivers/STM32F4xx_HAL_Driver/Src/stm32f4xx_hal_flash.c ****   *                  Program: Address which was selected for data program
 398:Platform/STM32F4xx/drivers/STM32F4xx_HAL_Driver/Src/stm32f4xx_hal_flash.c ****   * @retval None
 399:Platform/STM32F4xx/drivers/STM32F4xx_HAL_Driver/Src/stm32f4xx_hal_flash.c ****   */
 400:Platform/STM32F4xx/drivers/STM32F4xx_HAL_Driver/Src/stm32f4xx_hal_flash.c **** __weak void HAL_FLASH_EndOfOperationCallback(uint32_t ReturnValue)
 401:Platform/STM32F4xx/drivers/STM32F4xx_HAL_Driver/Src/stm32f4xx_hal_flash.c **** {
 402:Platform/STM32F4xx/drivers/STM32F4xx_HAL_Driver/Src/stm32f4xx_hal_flash.c ****   /* Prevent unused argument(s) compilation warning */
 403:Platform/STM32F4xx/drivers/STM32F4xx_HAL_Driver/Src/stm32f4xx_hal_flash.c ****   UNUSED(ReturnValue);
 404:Platform/STM32F4xx/drivers/STM32F4xx_HAL_Driver/Src/stm32f4xx_hal_flash.c ****   /* NOTE : This function Should not be modified, when the callback is needed,
 405:Platform/STM32F4xx/drivers/STM32F4xx_HAL_Driver/Src/stm32f4xx_hal_flash.c ****             the HAL_FLASH_EndOfOperationCallback could be implemented in the user file
 406:Platform/STM32F4xx/drivers/STM32F4xx_HAL_Driver/Src/stm32f4xx_hal_flash.c ****    */ 
 407:Platform/STM32F4xx/drivers/STM32F4xx_HAL_Driver/Src/stm32f4xx_hal_flash.c **** }
 408:Platform/STM32F4xx/drivers/STM32F4xx_HAL_Driver/Src/stm32f4xx_hal_flash.c **** 
 409:Platform/STM32F4xx/drivers/STM32F4xx_HAL_Driver/Src/stm32f4xx_hal_flash.c **** /**
 410:Platform/STM32F4xx/drivers/STM32F4xx_HAL_Driver/Src/stm32f4xx_hal_flash.c ****   * @brief  FLASH operation error interrupt callback
 411:Platform/STM32F4xx/drivers/STM32F4xx_HAL_Driver/Src/stm32f4xx_hal_flash.c ****   * @param  ReturnValue The value saved in this parameter depends on the ongoing procedure
 412:Platform/STM32F4xx/drivers/STM32F4xx_HAL_Driver/Src/stm32f4xx_hal_flash.c ****   *                 Mass Erase: Bank number which has been requested to erase
 413:Platform/STM32F4xx/drivers/STM32F4xx_HAL_Driver/Src/stm32f4xx_hal_flash.c ****   *                 Sectors Erase: Sector number which returned an error
 414:Platform/STM32F4xx/drivers/STM32F4xx_HAL_Driver/Src/stm32f4xx_hal_flash.c ****   *                 Program: Address which was selected for data program
 415:Platform/STM32F4xx/drivers/STM32F4xx_HAL_Driver/Src/stm32f4xx_hal_flash.c ****   * @retval None
 416:Platform/STM32F4xx/drivers/STM32F4xx_HAL_Driver/Src/stm32f4xx_hal_flash.c ****   */
 417:Platform/STM32F4xx/drivers/STM32F4xx_HAL_Driver/Src/stm32f4xx_hal_flash.c **** __weak void HAL_FLASH_OperationErrorCallback(uint32_t ReturnValue)
 418:Platform/STM32F4xx/drivers/STM32F4xx_HAL_Driver/Src/stm32f4xx_hal_flash.c **** {
 419:Platform/STM32F4xx/drivers/STM32F4xx_HAL_Driver/Src/stm32f4xx_hal_flash.c ****   /* Prevent unused argument(s) compilation warning */
 420:Platform/STM32F4xx/drivers/STM32F4xx_HAL_Driver/Src/stm32f4xx_hal_flash.c ****   UNUSED(ReturnValue);
 421:Platform/STM32F4xx/drivers/STM32F4xx_HAL_Driver/Src/stm32f4xx_hal_flash.c ****   /* NOTE : This function Should not be modified, when the callback is needed,
 422:Platform/STM32F4xx/drivers/STM32F4xx_HAL_Driver/Src/stm32f4xx_hal_flash.c ****             the HAL_FLASH_OperationErrorCallback could be implemented in the user file
 423:Platform/STM32F4xx/drivers/STM32F4xx_HAL_Driver/Src/stm32f4xx_hal_flash.c ****    */ 
 424:Platform/STM32F4xx/drivers/STM32F4xx_HAL_Driver/Src/stm32f4xx_hal_flash.c **** }
 425:Platform/STM32F4xx/drivers/STM32F4xx_HAL_Driver/Src/stm32f4xx_hal_flash.c **** 
 426:Platform/STM32F4xx/drivers/STM32F4xx_HAL_Driver/Src/stm32f4xx_hal_flash.c **** /**
 427:Platform/STM32F4xx/drivers/STM32F4xx_HAL_Driver/Src/stm32f4xx_hal_flash.c ****   * @}
 428:Platform/STM32F4xx/drivers/STM32F4xx_HAL_Driver/Src/stm32f4xx_hal_flash.c ****   */
 429:Platform/STM32F4xx/drivers/STM32F4xx_HAL_Driver/Src/stm32f4xx_hal_flash.c **** 
 430:Platform/STM32F4xx/drivers/STM32F4xx_HAL_Driver/Src/stm32f4xx_hal_flash.c **** /** @defgroup FLASH_Exported_Functions_Group2 Peripheral Control functions 
 431:Platform/STM32F4xx/drivers/STM32F4xx_HAL_Driver/Src/stm32f4xx_hal_flash.c ****  *  @brief   management functions 
ARM GAS  /tmp/ccnX3E2Z.s 			page 9


 432:Platform/STM32F4xx/drivers/STM32F4xx_HAL_Driver/Src/stm32f4xx_hal_flash.c ****  *
 433:Platform/STM32F4xx/drivers/STM32F4xx_HAL_Driver/Src/stm32f4xx_hal_flash.c **** @verbatim   
 434:Platform/STM32F4xx/drivers/STM32F4xx_HAL_Driver/Src/stm32f4xx_hal_flash.c ****  ===============================================================================
 435:Platform/STM32F4xx/drivers/STM32F4xx_HAL_Driver/Src/stm32f4xx_hal_flash.c ****                       ##### Peripheral Control functions #####
 436:Platform/STM32F4xx/drivers/STM32F4xx_HAL_Driver/Src/stm32f4xx_hal_flash.c ****  ===============================================================================  
 437:Platform/STM32F4xx/drivers/STM32F4xx_HAL_Driver/Src/stm32f4xx_hal_flash.c ****     [..]
 438:Platform/STM32F4xx/drivers/STM32F4xx_HAL_Driver/Src/stm32f4xx_hal_flash.c ****     This subsection provides a set of functions allowing to control the FLASH 
 439:Platform/STM32F4xx/drivers/STM32F4xx_HAL_Driver/Src/stm32f4xx_hal_flash.c ****     memory operations.
 440:Platform/STM32F4xx/drivers/STM32F4xx_HAL_Driver/Src/stm32f4xx_hal_flash.c **** 
 441:Platform/STM32F4xx/drivers/STM32F4xx_HAL_Driver/Src/stm32f4xx_hal_flash.c **** @endverbatim
 442:Platform/STM32F4xx/drivers/STM32F4xx_HAL_Driver/Src/stm32f4xx_hal_flash.c ****   * @{
 443:Platform/STM32F4xx/drivers/STM32F4xx_HAL_Driver/Src/stm32f4xx_hal_flash.c ****   */
 444:Platform/STM32F4xx/drivers/STM32F4xx_HAL_Driver/Src/stm32f4xx_hal_flash.c **** 
 445:Platform/STM32F4xx/drivers/STM32F4xx_HAL_Driver/Src/stm32f4xx_hal_flash.c **** /**
 446:Platform/STM32F4xx/drivers/STM32F4xx_HAL_Driver/Src/stm32f4xx_hal_flash.c ****   * @brief  Unlock the FLASH control register access
 447:Platform/STM32F4xx/drivers/STM32F4xx_HAL_Driver/Src/stm32f4xx_hal_flash.c ****   * @retval HAL Status
 448:Platform/STM32F4xx/drivers/STM32F4xx_HAL_Driver/Src/stm32f4xx_hal_flash.c ****   */
 449:Platform/STM32F4xx/drivers/STM32F4xx_HAL_Driver/Src/stm32f4xx_hal_flash.c **** HAL_StatusTypeDef HAL_FLASH_Unlock(void)
 450:Platform/STM32F4xx/drivers/STM32F4xx_HAL_Driver/Src/stm32f4xx_hal_flash.c **** {
 451:Platform/STM32F4xx/drivers/STM32F4xx_HAL_Driver/Src/stm32f4xx_hal_flash.c ****   HAL_StatusTypeDef status = HAL_OK;
 452:Platform/STM32F4xx/drivers/STM32F4xx_HAL_Driver/Src/stm32f4xx_hal_flash.c **** 
 453:Platform/STM32F4xx/drivers/STM32F4xx_HAL_Driver/Src/stm32f4xx_hal_flash.c ****   if(READ_BIT(FLASH->CR, FLASH_CR_LOCK) != RESET)
 454:Platform/STM32F4xx/drivers/STM32F4xx_HAL_Driver/Src/stm32f4xx_hal_flash.c ****   {
 455:Platform/STM32F4xx/drivers/STM32F4xx_HAL_Driver/Src/stm32f4xx_hal_flash.c ****     /* Authorize the FLASH Registers access */
 456:Platform/STM32F4xx/drivers/STM32F4xx_HAL_Driver/Src/stm32f4xx_hal_flash.c ****     WRITE_REG(FLASH->KEYR, FLASH_KEY1);
 457:Platform/STM32F4xx/drivers/STM32F4xx_HAL_Driver/Src/stm32f4xx_hal_flash.c ****     WRITE_REG(FLASH->KEYR, FLASH_KEY2);
 458:Platform/STM32F4xx/drivers/STM32F4xx_HAL_Driver/Src/stm32f4xx_hal_flash.c **** 
 459:Platform/STM32F4xx/drivers/STM32F4xx_HAL_Driver/Src/stm32f4xx_hal_flash.c ****     /* Verify Flash is unlocked */
 460:Platform/STM32F4xx/drivers/STM32F4xx_HAL_Driver/Src/stm32f4xx_hal_flash.c ****     if(READ_BIT(FLASH->CR, FLASH_CR_LOCK) != RESET)
 461:Platform/STM32F4xx/drivers/STM32F4xx_HAL_Driver/Src/stm32f4xx_hal_flash.c ****     {
 462:Platform/STM32F4xx/drivers/STM32F4xx_HAL_Driver/Src/stm32f4xx_hal_flash.c ****       status = HAL_ERROR;
 463:Platform/STM32F4xx/drivers/STM32F4xx_HAL_Driver/Src/stm32f4xx_hal_flash.c ****     }
 464:Platform/STM32F4xx/drivers/STM32F4xx_HAL_Driver/Src/stm32f4xx_hal_flash.c ****   }
 465:Platform/STM32F4xx/drivers/STM32F4xx_HAL_Driver/Src/stm32f4xx_hal_flash.c **** 
 466:Platform/STM32F4xx/drivers/STM32F4xx_HAL_Driver/Src/stm32f4xx_hal_flash.c ****   return status;
 467:Platform/STM32F4xx/drivers/STM32F4xx_HAL_Driver/Src/stm32f4xx_hal_flash.c **** }
 468:Platform/STM32F4xx/drivers/STM32F4xx_HAL_Driver/Src/stm32f4xx_hal_flash.c **** 
 469:Platform/STM32F4xx/drivers/STM32F4xx_HAL_Driver/Src/stm32f4xx_hal_flash.c **** /**
 470:Platform/STM32F4xx/drivers/STM32F4xx_HAL_Driver/Src/stm32f4xx_hal_flash.c ****   * @brief  Locks the FLASH control register access
 471:Platform/STM32F4xx/drivers/STM32F4xx_HAL_Driver/Src/stm32f4xx_hal_flash.c ****   * @retval HAL Status
 472:Platform/STM32F4xx/drivers/STM32F4xx_HAL_Driver/Src/stm32f4xx_hal_flash.c ****   */
 473:Platform/STM32F4xx/drivers/STM32F4xx_HAL_Driver/Src/stm32f4xx_hal_flash.c **** HAL_StatusTypeDef HAL_FLASH_Lock(void)
 474:Platform/STM32F4xx/drivers/STM32F4xx_HAL_Driver/Src/stm32f4xx_hal_flash.c **** {
 475:Platform/STM32F4xx/drivers/STM32F4xx_HAL_Driver/Src/stm32f4xx_hal_flash.c ****   /* Set the LOCK Bit to lock the FLASH Registers access */
 476:Platform/STM32F4xx/drivers/STM32F4xx_HAL_Driver/Src/stm32f4xx_hal_flash.c ****   FLASH->CR |= FLASH_CR_LOCK;
 477:Platform/STM32F4xx/drivers/STM32F4xx_HAL_Driver/Src/stm32f4xx_hal_flash.c ****   
 478:Platform/STM32F4xx/drivers/STM32F4xx_HAL_Driver/Src/stm32f4xx_hal_flash.c ****   return HAL_OK;  
 479:Platform/STM32F4xx/drivers/STM32F4xx_HAL_Driver/Src/stm32f4xx_hal_flash.c **** }
 480:Platform/STM32F4xx/drivers/STM32F4xx_HAL_Driver/Src/stm32f4xx_hal_flash.c **** 
 481:Platform/STM32F4xx/drivers/STM32F4xx_HAL_Driver/Src/stm32f4xx_hal_flash.c **** /**
 482:Platform/STM32F4xx/drivers/STM32F4xx_HAL_Driver/Src/stm32f4xx_hal_flash.c ****   * @brief  Unlock the FLASH Option Control Registers access.
 483:Platform/STM32F4xx/drivers/STM32F4xx_HAL_Driver/Src/stm32f4xx_hal_flash.c ****   * @retval HAL Status
 484:Platform/STM32F4xx/drivers/STM32F4xx_HAL_Driver/Src/stm32f4xx_hal_flash.c ****   */
 485:Platform/STM32F4xx/drivers/STM32F4xx_HAL_Driver/Src/stm32f4xx_hal_flash.c **** HAL_StatusTypeDef HAL_FLASH_OB_Unlock(void)
 486:Platform/STM32F4xx/drivers/STM32F4xx_HAL_Driver/Src/stm32f4xx_hal_flash.c **** {
 487:Platform/STM32F4xx/drivers/STM32F4xx_HAL_Driver/Src/stm32f4xx_hal_flash.c ****   if((FLASH->OPTCR & FLASH_OPTCR_OPTLOCK) != RESET)
 488:Platform/STM32F4xx/drivers/STM32F4xx_HAL_Driver/Src/stm32f4xx_hal_flash.c ****   {
ARM GAS  /tmp/ccnX3E2Z.s 			page 10


 489:Platform/STM32F4xx/drivers/STM32F4xx_HAL_Driver/Src/stm32f4xx_hal_flash.c ****     /* Authorizes the Option Byte register programming */
 490:Platform/STM32F4xx/drivers/STM32F4xx_HAL_Driver/Src/stm32f4xx_hal_flash.c ****     FLASH->OPTKEYR = FLASH_OPT_KEY1;
 491:Platform/STM32F4xx/drivers/STM32F4xx_HAL_Driver/Src/stm32f4xx_hal_flash.c ****     FLASH->OPTKEYR = FLASH_OPT_KEY2;
 492:Platform/STM32F4xx/drivers/STM32F4xx_HAL_Driver/Src/stm32f4xx_hal_flash.c ****   }
 493:Platform/STM32F4xx/drivers/STM32F4xx_HAL_Driver/Src/stm32f4xx_hal_flash.c ****   else
 494:Platform/STM32F4xx/drivers/STM32F4xx_HAL_Driver/Src/stm32f4xx_hal_flash.c ****   {
 495:Platform/STM32F4xx/drivers/STM32F4xx_HAL_Driver/Src/stm32f4xx_hal_flash.c ****     return HAL_ERROR;
 496:Platform/STM32F4xx/drivers/STM32F4xx_HAL_Driver/Src/stm32f4xx_hal_flash.c ****   }  
 497:Platform/STM32F4xx/drivers/STM32F4xx_HAL_Driver/Src/stm32f4xx_hal_flash.c ****   
 498:Platform/STM32F4xx/drivers/STM32F4xx_HAL_Driver/Src/stm32f4xx_hal_flash.c ****   return HAL_OK;  
 499:Platform/STM32F4xx/drivers/STM32F4xx_HAL_Driver/Src/stm32f4xx_hal_flash.c **** }
 500:Platform/STM32F4xx/drivers/STM32F4xx_HAL_Driver/Src/stm32f4xx_hal_flash.c **** 
 501:Platform/STM32F4xx/drivers/STM32F4xx_HAL_Driver/Src/stm32f4xx_hal_flash.c **** /**
 502:Platform/STM32F4xx/drivers/STM32F4xx_HAL_Driver/Src/stm32f4xx_hal_flash.c ****   * @brief  Lock the FLASH Option Control Registers access.
 503:Platform/STM32F4xx/drivers/STM32F4xx_HAL_Driver/Src/stm32f4xx_hal_flash.c ****   * @retval HAL Status 
 504:Platform/STM32F4xx/drivers/STM32F4xx_HAL_Driver/Src/stm32f4xx_hal_flash.c ****   */
 505:Platform/STM32F4xx/drivers/STM32F4xx_HAL_Driver/Src/stm32f4xx_hal_flash.c **** HAL_StatusTypeDef HAL_FLASH_OB_Lock(void)
 506:Platform/STM32F4xx/drivers/STM32F4xx_HAL_Driver/Src/stm32f4xx_hal_flash.c **** {
 507:Platform/STM32F4xx/drivers/STM32F4xx_HAL_Driver/Src/stm32f4xx_hal_flash.c ****   /* Set the OPTLOCK Bit to lock the FLASH Option Byte Registers access */
 508:Platform/STM32F4xx/drivers/STM32F4xx_HAL_Driver/Src/stm32f4xx_hal_flash.c ****   FLASH->OPTCR |= FLASH_OPTCR_OPTLOCK;
 509:Platform/STM32F4xx/drivers/STM32F4xx_HAL_Driver/Src/stm32f4xx_hal_flash.c ****   
 510:Platform/STM32F4xx/drivers/STM32F4xx_HAL_Driver/Src/stm32f4xx_hal_flash.c ****   return HAL_OK;  
 511:Platform/STM32F4xx/drivers/STM32F4xx_HAL_Driver/Src/stm32f4xx_hal_flash.c **** }
 512:Platform/STM32F4xx/drivers/STM32F4xx_HAL_Driver/Src/stm32f4xx_hal_flash.c **** 
 513:Platform/STM32F4xx/drivers/STM32F4xx_HAL_Driver/Src/stm32f4xx_hal_flash.c **** /**
 514:Platform/STM32F4xx/drivers/STM32F4xx_HAL_Driver/Src/stm32f4xx_hal_flash.c ****   * @brief  Launch the option byte loading.
 515:Platform/STM32F4xx/drivers/STM32F4xx_HAL_Driver/Src/stm32f4xx_hal_flash.c ****   * @retval HAL Status
 516:Platform/STM32F4xx/drivers/STM32F4xx_HAL_Driver/Src/stm32f4xx_hal_flash.c ****   */
 517:Platform/STM32F4xx/drivers/STM32F4xx_HAL_Driver/Src/stm32f4xx_hal_flash.c **** HAL_StatusTypeDef HAL_FLASH_OB_Launch(void)
 518:Platform/STM32F4xx/drivers/STM32F4xx_HAL_Driver/Src/stm32f4xx_hal_flash.c **** {
 519:Platform/STM32F4xx/drivers/STM32F4xx_HAL_Driver/Src/stm32f4xx_hal_flash.c ****   /* Set the OPTSTRT bit in OPTCR register */
 520:Platform/STM32F4xx/drivers/STM32F4xx_HAL_Driver/Src/stm32f4xx_hal_flash.c ****   *(__IO uint8_t *)OPTCR_BYTE0_ADDRESS |= FLASH_OPTCR_OPTSTRT;
 521:Platform/STM32F4xx/drivers/STM32F4xx_HAL_Driver/Src/stm32f4xx_hal_flash.c **** 
 522:Platform/STM32F4xx/drivers/STM32F4xx_HAL_Driver/Src/stm32f4xx_hal_flash.c ****   /* Wait for last operation to be completed */
 523:Platform/STM32F4xx/drivers/STM32F4xx_HAL_Driver/Src/stm32f4xx_hal_flash.c ****   return(FLASH_WaitForLastOperation((uint32_t)FLASH_TIMEOUT_VALUE)); 
 524:Platform/STM32F4xx/drivers/STM32F4xx_HAL_Driver/Src/stm32f4xx_hal_flash.c **** }
 525:Platform/STM32F4xx/drivers/STM32F4xx_HAL_Driver/Src/stm32f4xx_hal_flash.c **** 
 526:Platform/STM32F4xx/drivers/STM32F4xx_HAL_Driver/Src/stm32f4xx_hal_flash.c **** /**
 527:Platform/STM32F4xx/drivers/STM32F4xx_HAL_Driver/Src/stm32f4xx_hal_flash.c ****   * @}
 528:Platform/STM32F4xx/drivers/STM32F4xx_HAL_Driver/Src/stm32f4xx_hal_flash.c ****   */
 529:Platform/STM32F4xx/drivers/STM32F4xx_HAL_Driver/Src/stm32f4xx_hal_flash.c **** 
 530:Platform/STM32F4xx/drivers/STM32F4xx_HAL_Driver/Src/stm32f4xx_hal_flash.c **** /** @defgroup FLASH_Exported_Functions_Group3 Peripheral State and Errors functions 
 531:Platform/STM32F4xx/drivers/STM32F4xx_HAL_Driver/Src/stm32f4xx_hal_flash.c ****  *  @brief   Peripheral Errors functions 
 532:Platform/STM32F4xx/drivers/STM32F4xx_HAL_Driver/Src/stm32f4xx_hal_flash.c ****  *
 533:Platform/STM32F4xx/drivers/STM32F4xx_HAL_Driver/Src/stm32f4xx_hal_flash.c **** @verbatim   
 534:Platform/STM32F4xx/drivers/STM32F4xx_HAL_Driver/Src/stm32f4xx_hal_flash.c ****  ===============================================================================
 535:Platform/STM32F4xx/drivers/STM32F4xx_HAL_Driver/Src/stm32f4xx_hal_flash.c ****                 ##### Peripheral Errors functions #####
 536:Platform/STM32F4xx/drivers/STM32F4xx_HAL_Driver/Src/stm32f4xx_hal_flash.c ****  ===============================================================================  
 537:Platform/STM32F4xx/drivers/STM32F4xx_HAL_Driver/Src/stm32f4xx_hal_flash.c ****     [..]
 538:Platform/STM32F4xx/drivers/STM32F4xx_HAL_Driver/Src/stm32f4xx_hal_flash.c ****     This subsection permits to get in run-time Errors of the FLASH peripheral.
 539:Platform/STM32F4xx/drivers/STM32F4xx_HAL_Driver/Src/stm32f4xx_hal_flash.c **** 
 540:Platform/STM32F4xx/drivers/STM32F4xx_HAL_Driver/Src/stm32f4xx_hal_flash.c **** @endverbatim
 541:Platform/STM32F4xx/drivers/STM32F4xx_HAL_Driver/Src/stm32f4xx_hal_flash.c ****   * @{
 542:Platform/STM32F4xx/drivers/STM32F4xx_HAL_Driver/Src/stm32f4xx_hal_flash.c ****   */
 543:Platform/STM32F4xx/drivers/STM32F4xx_HAL_Driver/Src/stm32f4xx_hal_flash.c **** 
 544:Platform/STM32F4xx/drivers/STM32F4xx_HAL_Driver/Src/stm32f4xx_hal_flash.c **** /**
 545:Platform/STM32F4xx/drivers/STM32F4xx_HAL_Driver/Src/stm32f4xx_hal_flash.c ****   * @brief  Get the specific FLASH error flag.
ARM GAS  /tmp/ccnX3E2Z.s 			page 11


 546:Platform/STM32F4xx/drivers/STM32F4xx_HAL_Driver/Src/stm32f4xx_hal_flash.c ****   * @retval FLASH_ErrorCode: The returned value can be a combination of:
 547:Platform/STM32F4xx/drivers/STM32F4xx_HAL_Driver/Src/stm32f4xx_hal_flash.c ****   *            @arg HAL_FLASH_ERROR_RD: FLASH Read Protection error flag (PCROP)
 548:Platform/STM32F4xx/drivers/STM32F4xx_HAL_Driver/Src/stm32f4xx_hal_flash.c ****   *            @arg HAL_FLASH_ERROR_PGS: FLASH Programming Sequence error flag 
 549:Platform/STM32F4xx/drivers/STM32F4xx_HAL_Driver/Src/stm32f4xx_hal_flash.c ****   *            @arg HAL_FLASH_ERROR_PGP: FLASH Programming Parallelism error flag  
 550:Platform/STM32F4xx/drivers/STM32F4xx_HAL_Driver/Src/stm32f4xx_hal_flash.c ****   *            @arg HAL_FLASH_ERROR_PGA: FLASH Programming Alignment error flag
 551:Platform/STM32F4xx/drivers/STM32F4xx_HAL_Driver/Src/stm32f4xx_hal_flash.c ****   *            @arg HAL_FLASH_ERROR_WRP: FLASH Write protected error flag
 552:Platform/STM32F4xx/drivers/STM32F4xx_HAL_Driver/Src/stm32f4xx_hal_flash.c ****   *            @arg HAL_FLASH_ERROR_OPERATION: FLASH operation Error flag 
 553:Platform/STM32F4xx/drivers/STM32F4xx_HAL_Driver/Src/stm32f4xx_hal_flash.c ****   */
 554:Platform/STM32F4xx/drivers/STM32F4xx_HAL_Driver/Src/stm32f4xx_hal_flash.c **** uint32_t HAL_FLASH_GetError(void)
 555:Platform/STM32F4xx/drivers/STM32F4xx_HAL_Driver/Src/stm32f4xx_hal_flash.c **** { 
 556:Platform/STM32F4xx/drivers/STM32F4xx_HAL_Driver/Src/stm32f4xx_hal_flash.c ****    return pFlash.ErrorCode;
 557:Platform/STM32F4xx/drivers/STM32F4xx_HAL_Driver/Src/stm32f4xx_hal_flash.c **** }  
 558:Platform/STM32F4xx/drivers/STM32F4xx_HAL_Driver/Src/stm32f4xx_hal_flash.c ****   
 559:Platform/STM32F4xx/drivers/STM32F4xx_HAL_Driver/Src/stm32f4xx_hal_flash.c **** /**
 560:Platform/STM32F4xx/drivers/STM32F4xx_HAL_Driver/Src/stm32f4xx_hal_flash.c ****   * @}
 561:Platform/STM32F4xx/drivers/STM32F4xx_HAL_Driver/Src/stm32f4xx_hal_flash.c ****   */    
 562:Platform/STM32F4xx/drivers/STM32F4xx_HAL_Driver/Src/stm32f4xx_hal_flash.c **** 
 563:Platform/STM32F4xx/drivers/STM32F4xx_HAL_Driver/Src/stm32f4xx_hal_flash.c **** /**
 564:Platform/STM32F4xx/drivers/STM32F4xx_HAL_Driver/Src/stm32f4xx_hal_flash.c ****   * @brief  Wait for a FLASH operation to complete.
 565:Platform/STM32F4xx/drivers/STM32F4xx_HAL_Driver/Src/stm32f4xx_hal_flash.c ****   * @param  Timeout maximum flash operationtimeout
 566:Platform/STM32F4xx/drivers/STM32F4xx_HAL_Driver/Src/stm32f4xx_hal_flash.c ****   * @retval HAL Status
 567:Platform/STM32F4xx/drivers/STM32F4xx_HAL_Driver/Src/stm32f4xx_hal_flash.c ****   */
 568:Platform/STM32F4xx/drivers/STM32F4xx_HAL_Driver/Src/stm32f4xx_hal_flash.c **** HAL_StatusTypeDef FLASH_WaitForLastOperation(uint32_t Timeout)
 569:Platform/STM32F4xx/drivers/STM32F4xx_HAL_Driver/Src/stm32f4xx_hal_flash.c **** { 
 570:Platform/STM32F4xx/drivers/STM32F4xx_HAL_Driver/Src/stm32f4xx_hal_flash.c ****   uint32_t tickstart = 0U;
 571:Platform/STM32F4xx/drivers/STM32F4xx_HAL_Driver/Src/stm32f4xx_hal_flash.c ****   
 572:Platform/STM32F4xx/drivers/STM32F4xx_HAL_Driver/Src/stm32f4xx_hal_flash.c ****   /* Clear Error Code */
 573:Platform/STM32F4xx/drivers/STM32F4xx_HAL_Driver/Src/stm32f4xx_hal_flash.c ****   pFlash.ErrorCode = HAL_FLASH_ERROR_NONE;
 574:Platform/STM32F4xx/drivers/STM32F4xx_HAL_Driver/Src/stm32f4xx_hal_flash.c ****   
 575:Platform/STM32F4xx/drivers/STM32F4xx_HAL_Driver/Src/stm32f4xx_hal_flash.c ****   /* Wait for the FLASH operation to complete by polling on BUSY flag to be reset.
 576:Platform/STM32F4xx/drivers/STM32F4xx_HAL_Driver/Src/stm32f4xx_hal_flash.c ****      Even if the FLASH operation fails, the BUSY flag will be reset and an error
 577:Platform/STM32F4xx/drivers/STM32F4xx_HAL_Driver/Src/stm32f4xx_hal_flash.c ****      flag will be set */
 578:Platform/STM32F4xx/drivers/STM32F4xx_HAL_Driver/Src/stm32f4xx_hal_flash.c ****   /* Get tick */
 579:Platform/STM32F4xx/drivers/STM32F4xx_HAL_Driver/Src/stm32f4xx_hal_flash.c ****   tickstart = HAL_GetTick();
 580:Platform/STM32F4xx/drivers/STM32F4xx_HAL_Driver/Src/stm32f4xx_hal_flash.c **** 
 581:Platform/STM32F4xx/drivers/STM32F4xx_HAL_Driver/Src/stm32f4xx_hal_flash.c ****   while(__HAL_FLASH_GET_FLAG(FLASH_FLAG_BSY) != RESET) 
 582:Platform/STM32F4xx/drivers/STM32F4xx_HAL_Driver/Src/stm32f4xx_hal_flash.c ****   { 
 583:Platform/STM32F4xx/drivers/STM32F4xx_HAL_Driver/Src/stm32f4xx_hal_flash.c ****     if(Timeout != HAL_MAX_DELAY)
 584:Platform/STM32F4xx/drivers/STM32F4xx_HAL_Driver/Src/stm32f4xx_hal_flash.c ****     {
 585:Platform/STM32F4xx/drivers/STM32F4xx_HAL_Driver/Src/stm32f4xx_hal_flash.c ****       if((Timeout == 0U)||((HAL_GetTick() - tickstart ) > Timeout))
 586:Platform/STM32F4xx/drivers/STM32F4xx_HAL_Driver/Src/stm32f4xx_hal_flash.c ****       {
 587:Platform/STM32F4xx/drivers/STM32F4xx_HAL_Driver/Src/stm32f4xx_hal_flash.c ****         return HAL_TIMEOUT;
 588:Platform/STM32F4xx/drivers/STM32F4xx_HAL_Driver/Src/stm32f4xx_hal_flash.c ****       }
 589:Platform/STM32F4xx/drivers/STM32F4xx_HAL_Driver/Src/stm32f4xx_hal_flash.c ****     } 
 590:Platform/STM32F4xx/drivers/STM32F4xx_HAL_Driver/Src/stm32f4xx_hal_flash.c ****   }
 591:Platform/STM32F4xx/drivers/STM32F4xx_HAL_Driver/Src/stm32f4xx_hal_flash.c **** 
 592:Platform/STM32F4xx/drivers/STM32F4xx_HAL_Driver/Src/stm32f4xx_hal_flash.c ****   /* Check FLASH End of Operation flag  */
 593:Platform/STM32F4xx/drivers/STM32F4xx_HAL_Driver/Src/stm32f4xx_hal_flash.c ****   if (__HAL_FLASH_GET_FLAG(FLASH_FLAG_EOP) != RESET)
 594:Platform/STM32F4xx/drivers/STM32F4xx_HAL_Driver/Src/stm32f4xx_hal_flash.c ****   {
 595:Platform/STM32F4xx/drivers/STM32F4xx_HAL_Driver/Src/stm32f4xx_hal_flash.c ****     /* Clear FLASH End of Operation pending bit */
 596:Platform/STM32F4xx/drivers/STM32F4xx_HAL_Driver/Src/stm32f4xx_hal_flash.c ****     __HAL_FLASH_CLEAR_FLAG(FLASH_FLAG_EOP);
 597:Platform/STM32F4xx/drivers/STM32F4xx_HAL_Driver/Src/stm32f4xx_hal_flash.c ****   }
 598:Platform/STM32F4xx/drivers/STM32F4xx_HAL_Driver/Src/stm32f4xx_hal_flash.c **** #if defined(FLASH_SR_RDERR)  
 599:Platform/STM32F4xx/drivers/STM32F4xx_HAL_Driver/Src/stm32f4xx_hal_flash.c ****   if(__HAL_FLASH_GET_FLAG((FLASH_FLAG_OPERR | FLASH_FLAG_WRPERR | FLASH_FLAG_PGAERR | \
 600:Platform/STM32F4xx/drivers/STM32F4xx_HAL_Driver/Src/stm32f4xx_hal_flash.c ****                            FLASH_FLAG_PGPERR | FLASH_FLAG_PGSERR | FLASH_FLAG_RDERR)) != RESET)
 601:Platform/STM32F4xx/drivers/STM32F4xx_HAL_Driver/Src/stm32f4xx_hal_flash.c **** #else
 602:Platform/STM32F4xx/drivers/STM32F4xx_HAL_Driver/Src/stm32f4xx_hal_flash.c ****   if(__HAL_FLASH_GET_FLAG((FLASH_FLAG_OPERR | FLASH_FLAG_WRPERR | FLASH_FLAG_PGAERR | \
ARM GAS  /tmp/ccnX3E2Z.s 			page 12


 603:Platform/STM32F4xx/drivers/STM32F4xx_HAL_Driver/Src/stm32f4xx_hal_flash.c ****                            FLASH_FLAG_PGPERR | FLASH_FLAG_PGSERR)) != RESET)
 604:Platform/STM32F4xx/drivers/STM32F4xx_HAL_Driver/Src/stm32f4xx_hal_flash.c **** #endif /* FLASH_SR_RDERR */
 605:Platform/STM32F4xx/drivers/STM32F4xx_HAL_Driver/Src/stm32f4xx_hal_flash.c ****   {
 606:Platform/STM32F4xx/drivers/STM32F4xx_HAL_Driver/Src/stm32f4xx_hal_flash.c ****     /*Save the error code*/
 607:Platform/STM32F4xx/drivers/STM32F4xx_HAL_Driver/Src/stm32f4xx_hal_flash.c ****     FLASH_SetErrorCode();
 608:Platform/STM32F4xx/drivers/STM32F4xx_HAL_Driver/Src/stm32f4xx_hal_flash.c ****     return HAL_ERROR;
 609:Platform/STM32F4xx/drivers/STM32F4xx_HAL_Driver/Src/stm32f4xx_hal_flash.c ****   }
 610:Platform/STM32F4xx/drivers/STM32F4xx_HAL_Driver/Src/stm32f4xx_hal_flash.c **** 
 611:Platform/STM32F4xx/drivers/STM32F4xx_HAL_Driver/Src/stm32f4xx_hal_flash.c ****   /* If there is no error flag set */
 612:Platform/STM32F4xx/drivers/STM32F4xx_HAL_Driver/Src/stm32f4xx_hal_flash.c ****   return HAL_OK;
 613:Platform/STM32F4xx/drivers/STM32F4xx_HAL_Driver/Src/stm32f4xx_hal_flash.c ****   
 614:Platform/STM32F4xx/drivers/STM32F4xx_HAL_Driver/Src/stm32f4xx_hal_flash.c **** }  
 615:Platform/STM32F4xx/drivers/STM32F4xx_HAL_Driver/Src/stm32f4xx_hal_flash.c **** 
 616:Platform/STM32F4xx/drivers/STM32F4xx_HAL_Driver/Src/stm32f4xx_hal_flash.c **** /**
 617:Platform/STM32F4xx/drivers/STM32F4xx_HAL_Driver/Src/stm32f4xx_hal_flash.c ****   * @brief  Program a double word (64-bit) at a specified address.
 618:Platform/STM32F4xx/drivers/STM32F4xx_HAL_Driver/Src/stm32f4xx_hal_flash.c ****   * @note   This function must be used when the device voltage range is from
 619:Platform/STM32F4xx/drivers/STM32F4xx_HAL_Driver/Src/stm32f4xx_hal_flash.c ****   *         2.7V to 3.6V and Vpp in the range 7V to 9V.
 620:Platform/STM32F4xx/drivers/STM32F4xx_HAL_Driver/Src/stm32f4xx_hal_flash.c ****   *
 621:Platform/STM32F4xx/drivers/STM32F4xx_HAL_Driver/Src/stm32f4xx_hal_flash.c ****   * @note   If an erase and a program operations are requested simultaneously,    
 622:Platform/STM32F4xx/drivers/STM32F4xx_HAL_Driver/Src/stm32f4xx_hal_flash.c ****   *         the erase operation is performed before the program one.
 623:Platform/STM32F4xx/drivers/STM32F4xx_HAL_Driver/Src/stm32f4xx_hal_flash.c ****   *  
 624:Platform/STM32F4xx/drivers/STM32F4xx_HAL_Driver/Src/stm32f4xx_hal_flash.c ****   * @param  Address specifies the address to be programmed.
 625:Platform/STM32F4xx/drivers/STM32F4xx_HAL_Driver/Src/stm32f4xx_hal_flash.c ****   * @param  Data specifies the data to be programmed.
 626:Platform/STM32F4xx/drivers/STM32F4xx_HAL_Driver/Src/stm32f4xx_hal_flash.c ****   * @retval None
 627:Platform/STM32F4xx/drivers/STM32F4xx_HAL_Driver/Src/stm32f4xx_hal_flash.c ****   */
 628:Platform/STM32F4xx/drivers/STM32F4xx_HAL_Driver/Src/stm32f4xx_hal_flash.c **** static void FLASH_Program_DoubleWord(uint32_t Address, uint64_t Data)
 629:Platform/STM32F4xx/drivers/STM32F4xx_HAL_Driver/Src/stm32f4xx_hal_flash.c **** {
  27              		.loc 1 629 0
  28              		.cfi_startproc
  29              		@ args = 0, pretend = 0, frame = 0
  30              		@ frame_needed = 0, uses_anonymous_args = 0
  31              		@ link register save eliminated.
  32              	.LVL0:
  33 0000 10B4     		push	{r4}
  34              	.LCFI0:
  35              		.cfi_def_cfa_offset 4
  36              		.cfi_offset 4, -4
 630:Platform/STM32F4xx/drivers/STM32F4xx_HAL_Driver/Src/stm32f4xx_hal_flash.c ****   /* Check the parameters */
 631:Platform/STM32F4xx/drivers/STM32F4xx_HAL_Driver/Src/stm32f4xx_hal_flash.c ****   assert_param(IS_FLASH_ADDRESS(Address));
 632:Platform/STM32F4xx/drivers/STM32F4xx_HAL_Driver/Src/stm32f4xx_hal_flash.c ****   
 633:Platform/STM32F4xx/drivers/STM32F4xx_HAL_Driver/Src/stm32f4xx_hal_flash.c ****   /* If the previous operation is completed, proceed to program the new data */
 634:Platform/STM32F4xx/drivers/STM32F4xx_HAL_Driver/Src/stm32f4xx_hal_flash.c ****   CLEAR_BIT(FLASH->CR, FLASH_CR_PSIZE);
  37              		.loc 1 634 0
  38 0002 0949     		ldr	r1, .L3
  39 0004 0C69     		ldr	r4, [r1, #16]
  40 0006 24F44074 		bic	r4, r4, #768
  41 000a 0C61     		str	r4, [r1, #16]
 635:Platform/STM32F4xx/drivers/STM32F4xx_HAL_Driver/Src/stm32f4xx_hal_flash.c ****   FLASH->CR |= FLASH_PSIZE_DOUBLE_WORD;
  42              		.loc 1 635 0
  43 000c 0C69     		ldr	r4, [r1, #16]
  44 000e 44F44074 		orr	r4, r4, #768
  45 0012 0C61     		str	r4, [r1, #16]
 636:Platform/STM32F4xx/drivers/STM32F4xx_HAL_Driver/Src/stm32f4xx_hal_flash.c ****   FLASH->CR |= FLASH_CR_PG;
  46              		.loc 1 636 0
  47 0014 0C69     		ldr	r4, [r1, #16]
  48 0016 44F00104 		orr	r4, r4, #1
  49 001a 0C61     		str	r4, [r1, #16]
ARM GAS  /tmp/ccnX3E2Z.s 			page 13


 637:Platform/STM32F4xx/drivers/STM32F4xx_HAL_Driver/Src/stm32f4xx_hal_flash.c **** 
 638:Platform/STM32F4xx/drivers/STM32F4xx_HAL_Driver/Src/stm32f4xx_hal_flash.c ****   /* Program the double-word */
 639:Platform/STM32F4xx/drivers/STM32F4xx_HAL_Driver/Src/stm32f4xx_hal_flash.c ****   *(__IO uint32_t*)Address = (uint32_t)Data;
  50              		.loc 1 639 0
  51 001c 0260     		str	r2, [r0]
 640:Platform/STM32F4xx/drivers/STM32F4xx_HAL_Driver/Src/stm32f4xx_hal_flash.c ****   *(__IO uint32_t*)(Address+4) = (uint32_t)(Data >> 32);
  52              		.loc 1 640 0
  53 001e 4360     		str	r3, [r0, #4]
 641:Platform/STM32F4xx/drivers/STM32F4xx_HAL_Driver/Src/stm32f4xx_hal_flash.c **** }
  54              		.loc 1 641 0
  55 0020 5DF8044B 		ldr	r4, [sp], #4
  56              	.LCFI1:
  57              		.cfi_restore 4
  58              		.cfi_def_cfa_offset 0
  59 0024 7047     		bx	lr
  60              	.L4:
  61 0026 00BF     		.align	2
  62              	.L3:
  63 0028 003C0240 		.word	1073888256
  64              		.cfi_endproc
  65              	.LFE138:
  67              		.section	.text.FLASH_Program_Word,"ax",%progbits
  68              		.align	1
  69              		.syntax unified
  70              		.thumb
  71              		.thumb_func
  72              		.fpu fpv4-sp-d16
  74              	FLASH_Program_Word:
  75              	.LFB139:
 642:Platform/STM32F4xx/drivers/STM32F4xx_HAL_Driver/Src/stm32f4xx_hal_flash.c **** 
 643:Platform/STM32F4xx/drivers/STM32F4xx_HAL_Driver/Src/stm32f4xx_hal_flash.c **** 
 644:Platform/STM32F4xx/drivers/STM32F4xx_HAL_Driver/Src/stm32f4xx_hal_flash.c **** /**
 645:Platform/STM32F4xx/drivers/STM32F4xx_HAL_Driver/Src/stm32f4xx_hal_flash.c ****   * @brief  Program word (32-bit) at a specified address.
 646:Platform/STM32F4xx/drivers/STM32F4xx_HAL_Driver/Src/stm32f4xx_hal_flash.c ****   * @note   This function must be used when the device voltage range is from
 647:Platform/STM32F4xx/drivers/STM32F4xx_HAL_Driver/Src/stm32f4xx_hal_flash.c ****   *         2.7V to 3.6V.
 648:Platform/STM32F4xx/drivers/STM32F4xx_HAL_Driver/Src/stm32f4xx_hal_flash.c ****   *
 649:Platform/STM32F4xx/drivers/STM32F4xx_HAL_Driver/Src/stm32f4xx_hal_flash.c ****   * @note   If an erase and a program operations are requested simultaneously,    
 650:Platform/STM32F4xx/drivers/STM32F4xx_HAL_Driver/Src/stm32f4xx_hal_flash.c ****   *         the erase operation is performed before the program one.
 651:Platform/STM32F4xx/drivers/STM32F4xx_HAL_Driver/Src/stm32f4xx_hal_flash.c ****   *  
 652:Platform/STM32F4xx/drivers/STM32F4xx_HAL_Driver/Src/stm32f4xx_hal_flash.c ****   * @param  Address specifies the address to be programmed.
 653:Platform/STM32F4xx/drivers/STM32F4xx_HAL_Driver/Src/stm32f4xx_hal_flash.c ****   * @param  Data specifies the data to be programmed.
 654:Platform/STM32F4xx/drivers/STM32F4xx_HAL_Driver/Src/stm32f4xx_hal_flash.c ****   * @retval None
 655:Platform/STM32F4xx/drivers/STM32F4xx_HAL_Driver/Src/stm32f4xx_hal_flash.c ****   */
 656:Platform/STM32F4xx/drivers/STM32F4xx_HAL_Driver/Src/stm32f4xx_hal_flash.c **** static void FLASH_Program_Word(uint32_t Address, uint32_t Data)
 657:Platform/STM32F4xx/drivers/STM32F4xx_HAL_Driver/Src/stm32f4xx_hal_flash.c **** {
  76              		.loc 1 657 0
  77              		.cfi_startproc
  78              		@ args = 0, pretend = 0, frame = 0
  79              		@ frame_needed = 0, uses_anonymous_args = 0
  80              		@ link register save eliminated.
  81              	.LVL1:
 658:Platform/STM32F4xx/drivers/STM32F4xx_HAL_Driver/Src/stm32f4xx_hal_flash.c ****   /* Check the parameters */
 659:Platform/STM32F4xx/drivers/STM32F4xx_HAL_Driver/Src/stm32f4xx_hal_flash.c ****   assert_param(IS_FLASH_ADDRESS(Address));
 660:Platform/STM32F4xx/drivers/STM32F4xx_HAL_Driver/Src/stm32f4xx_hal_flash.c ****   
 661:Platform/STM32F4xx/drivers/STM32F4xx_HAL_Driver/Src/stm32f4xx_hal_flash.c ****   /* If the previous operation is completed, proceed to program the new data */
 662:Platform/STM32F4xx/drivers/STM32F4xx_HAL_Driver/Src/stm32f4xx_hal_flash.c ****   CLEAR_BIT(FLASH->CR, FLASH_CR_PSIZE);
  82              		.loc 1 662 0
ARM GAS  /tmp/ccnX3E2Z.s 			page 14


  83 0000 074B     		ldr	r3, .L6
  84 0002 1A69     		ldr	r2, [r3, #16]
  85 0004 22F44072 		bic	r2, r2, #768
  86 0008 1A61     		str	r2, [r3, #16]
 663:Platform/STM32F4xx/drivers/STM32F4xx_HAL_Driver/Src/stm32f4xx_hal_flash.c ****   FLASH->CR |= FLASH_PSIZE_WORD;
  87              		.loc 1 663 0
  88 000a 1A69     		ldr	r2, [r3, #16]
  89 000c 42F40072 		orr	r2, r2, #512
  90 0010 1A61     		str	r2, [r3, #16]
 664:Platform/STM32F4xx/drivers/STM32F4xx_HAL_Driver/Src/stm32f4xx_hal_flash.c ****   FLASH->CR |= FLASH_CR_PG;
  91              		.loc 1 664 0
  92 0012 1A69     		ldr	r2, [r3, #16]
  93 0014 42F00102 		orr	r2, r2, #1
  94 0018 1A61     		str	r2, [r3, #16]
 665:Platform/STM32F4xx/drivers/STM32F4xx_HAL_Driver/Src/stm32f4xx_hal_flash.c **** 
 666:Platform/STM32F4xx/drivers/STM32F4xx_HAL_Driver/Src/stm32f4xx_hal_flash.c ****   *(__IO uint32_t*)Address = Data;
  95              		.loc 1 666 0
  96 001a 0160     		str	r1, [r0]
 667:Platform/STM32F4xx/drivers/STM32F4xx_HAL_Driver/Src/stm32f4xx_hal_flash.c **** }
  97              		.loc 1 667 0
  98 001c 7047     		bx	lr
  99              	.L7:
 100 001e 00BF     		.align	2
 101              	.L6:
 102 0020 003C0240 		.word	1073888256
 103              		.cfi_endproc
 104              	.LFE139:
 106              		.section	.text.FLASH_Program_HalfWord,"ax",%progbits
 107              		.align	1
 108              		.syntax unified
 109              		.thumb
 110              		.thumb_func
 111              		.fpu fpv4-sp-d16
 113              	FLASH_Program_HalfWord:
 114              	.LFB140:
 668:Platform/STM32F4xx/drivers/STM32F4xx_HAL_Driver/Src/stm32f4xx_hal_flash.c **** 
 669:Platform/STM32F4xx/drivers/STM32F4xx_HAL_Driver/Src/stm32f4xx_hal_flash.c **** /**
 670:Platform/STM32F4xx/drivers/STM32F4xx_HAL_Driver/Src/stm32f4xx_hal_flash.c ****   * @brief  Program a half-word (16-bit) at a specified address.
 671:Platform/STM32F4xx/drivers/STM32F4xx_HAL_Driver/Src/stm32f4xx_hal_flash.c ****   * @note   This function must be used when the device voltage range is from
 672:Platform/STM32F4xx/drivers/STM32F4xx_HAL_Driver/Src/stm32f4xx_hal_flash.c ****   *         2.1V to 3.6V.
 673:Platform/STM32F4xx/drivers/STM32F4xx_HAL_Driver/Src/stm32f4xx_hal_flash.c ****   *
 674:Platform/STM32F4xx/drivers/STM32F4xx_HAL_Driver/Src/stm32f4xx_hal_flash.c ****   * @note   If an erase and a program operations are requested simultaneously,    
 675:Platform/STM32F4xx/drivers/STM32F4xx_HAL_Driver/Src/stm32f4xx_hal_flash.c ****   *         the erase operation is performed before the program one.
 676:Platform/STM32F4xx/drivers/STM32F4xx_HAL_Driver/Src/stm32f4xx_hal_flash.c ****   *  
 677:Platform/STM32F4xx/drivers/STM32F4xx_HAL_Driver/Src/stm32f4xx_hal_flash.c ****   * @param  Address specifies the address to be programmed.
 678:Platform/STM32F4xx/drivers/STM32F4xx_HAL_Driver/Src/stm32f4xx_hal_flash.c ****   * @param  Data specifies the data to be programmed.
 679:Platform/STM32F4xx/drivers/STM32F4xx_HAL_Driver/Src/stm32f4xx_hal_flash.c ****   * @retval None
 680:Platform/STM32F4xx/drivers/STM32F4xx_HAL_Driver/Src/stm32f4xx_hal_flash.c ****   */
 681:Platform/STM32F4xx/drivers/STM32F4xx_HAL_Driver/Src/stm32f4xx_hal_flash.c **** static void FLASH_Program_HalfWord(uint32_t Address, uint16_t Data)
 682:Platform/STM32F4xx/drivers/STM32F4xx_HAL_Driver/Src/stm32f4xx_hal_flash.c **** {
 115              		.loc 1 682 0
 116              		.cfi_startproc
 117              		@ args = 0, pretend = 0, frame = 0
 118              		@ frame_needed = 0, uses_anonymous_args = 0
 119              		@ link register save eliminated.
 120              	.LVL2:
 683:Platform/STM32F4xx/drivers/STM32F4xx_HAL_Driver/Src/stm32f4xx_hal_flash.c ****   /* Check the parameters */
ARM GAS  /tmp/ccnX3E2Z.s 			page 15


 684:Platform/STM32F4xx/drivers/STM32F4xx_HAL_Driver/Src/stm32f4xx_hal_flash.c ****   assert_param(IS_FLASH_ADDRESS(Address));
 685:Platform/STM32F4xx/drivers/STM32F4xx_HAL_Driver/Src/stm32f4xx_hal_flash.c ****   
 686:Platform/STM32F4xx/drivers/STM32F4xx_HAL_Driver/Src/stm32f4xx_hal_flash.c ****   /* If the previous operation is completed, proceed to program the new data */
 687:Platform/STM32F4xx/drivers/STM32F4xx_HAL_Driver/Src/stm32f4xx_hal_flash.c ****   CLEAR_BIT(FLASH->CR, FLASH_CR_PSIZE);
 121              		.loc 1 687 0
 122 0000 074B     		ldr	r3, .L9
 123 0002 1A69     		ldr	r2, [r3, #16]
 124 0004 22F44072 		bic	r2, r2, #768
 125 0008 1A61     		str	r2, [r3, #16]
 688:Platform/STM32F4xx/drivers/STM32F4xx_HAL_Driver/Src/stm32f4xx_hal_flash.c ****   FLASH->CR |= FLASH_PSIZE_HALF_WORD;
 126              		.loc 1 688 0
 127 000a 1A69     		ldr	r2, [r3, #16]
 128 000c 42F48072 		orr	r2, r2, #256
 129 0010 1A61     		str	r2, [r3, #16]
 689:Platform/STM32F4xx/drivers/STM32F4xx_HAL_Driver/Src/stm32f4xx_hal_flash.c ****   FLASH->CR |= FLASH_CR_PG;
 130              		.loc 1 689 0
 131 0012 1A69     		ldr	r2, [r3, #16]
 132 0014 42F00102 		orr	r2, r2, #1
 133 0018 1A61     		str	r2, [r3, #16]
 690:Platform/STM32F4xx/drivers/STM32F4xx_HAL_Driver/Src/stm32f4xx_hal_flash.c **** 
 691:Platform/STM32F4xx/drivers/STM32F4xx_HAL_Driver/Src/stm32f4xx_hal_flash.c ****   *(__IO uint16_t*)Address = Data;
 134              		.loc 1 691 0
 135 001a 0180     		strh	r1, [r0]	@ movhi
 692:Platform/STM32F4xx/drivers/STM32F4xx_HAL_Driver/Src/stm32f4xx_hal_flash.c **** }
 136              		.loc 1 692 0
 137 001c 7047     		bx	lr
 138              	.L10:
 139 001e 00BF     		.align	2
 140              	.L9:
 141 0020 003C0240 		.word	1073888256
 142              		.cfi_endproc
 143              	.LFE140:
 145              		.section	.text.FLASH_Program_Byte,"ax",%progbits
 146              		.align	1
 147              		.syntax unified
 148              		.thumb
 149              		.thumb_func
 150              		.fpu fpv4-sp-d16
 152              	FLASH_Program_Byte:
 153              	.LFB141:
 693:Platform/STM32F4xx/drivers/STM32F4xx_HAL_Driver/Src/stm32f4xx_hal_flash.c **** 
 694:Platform/STM32F4xx/drivers/STM32F4xx_HAL_Driver/Src/stm32f4xx_hal_flash.c **** /**
 695:Platform/STM32F4xx/drivers/STM32F4xx_HAL_Driver/Src/stm32f4xx_hal_flash.c ****   * @brief  Program byte (8-bit) at a specified address.
 696:Platform/STM32F4xx/drivers/STM32F4xx_HAL_Driver/Src/stm32f4xx_hal_flash.c ****   * @note   This function must be used when the device voltage range is from
 697:Platform/STM32F4xx/drivers/STM32F4xx_HAL_Driver/Src/stm32f4xx_hal_flash.c ****   *         1.8V to 3.6V.
 698:Platform/STM32F4xx/drivers/STM32F4xx_HAL_Driver/Src/stm32f4xx_hal_flash.c ****   *
 699:Platform/STM32F4xx/drivers/STM32F4xx_HAL_Driver/Src/stm32f4xx_hal_flash.c ****   * @note   If an erase and a program operations are requested simultaneously,    
 700:Platform/STM32F4xx/drivers/STM32F4xx_HAL_Driver/Src/stm32f4xx_hal_flash.c ****   *         the erase operation is performed before the program one.
 701:Platform/STM32F4xx/drivers/STM32F4xx_HAL_Driver/Src/stm32f4xx_hal_flash.c ****   *  
 702:Platform/STM32F4xx/drivers/STM32F4xx_HAL_Driver/Src/stm32f4xx_hal_flash.c ****   * @param  Address specifies the address to be programmed.
 703:Platform/STM32F4xx/drivers/STM32F4xx_HAL_Driver/Src/stm32f4xx_hal_flash.c ****   * @param  Data specifies the data to be programmed.
 704:Platform/STM32F4xx/drivers/STM32F4xx_HAL_Driver/Src/stm32f4xx_hal_flash.c ****   * @retval None
 705:Platform/STM32F4xx/drivers/STM32F4xx_HAL_Driver/Src/stm32f4xx_hal_flash.c ****   */
 706:Platform/STM32F4xx/drivers/STM32F4xx_HAL_Driver/Src/stm32f4xx_hal_flash.c **** static void FLASH_Program_Byte(uint32_t Address, uint8_t Data)
 707:Platform/STM32F4xx/drivers/STM32F4xx_HAL_Driver/Src/stm32f4xx_hal_flash.c **** {
 154              		.loc 1 707 0
 155              		.cfi_startproc
ARM GAS  /tmp/ccnX3E2Z.s 			page 16


 156              		@ args = 0, pretend = 0, frame = 0
 157              		@ frame_needed = 0, uses_anonymous_args = 0
 158              		@ link register save eliminated.
 159              	.LVL3:
 708:Platform/STM32F4xx/drivers/STM32F4xx_HAL_Driver/Src/stm32f4xx_hal_flash.c ****   /* Check the parameters */
 709:Platform/STM32F4xx/drivers/STM32F4xx_HAL_Driver/Src/stm32f4xx_hal_flash.c ****   assert_param(IS_FLASH_ADDRESS(Address));
 710:Platform/STM32F4xx/drivers/STM32F4xx_HAL_Driver/Src/stm32f4xx_hal_flash.c ****   
 711:Platform/STM32F4xx/drivers/STM32F4xx_HAL_Driver/Src/stm32f4xx_hal_flash.c ****   /* If the previous operation is completed, proceed to program the new data */
 712:Platform/STM32F4xx/drivers/STM32F4xx_HAL_Driver/Src/stm32f4xx_hal_flash.c ****   CLEAR_BIT(FLASH->CR, FLASH_CR_PSIZE);
 160              		.loc 1 712 0
 161 0000 064B     		ldr	r3, .L12
 162 0002 1A69     		ldr	r2, [r3, #16]
 163 0004 22F44072 		bic	r2, r2, #768
 164 0008 1A61     		str	r2, [r3, #16]
 713:Platform/STM32F4xx/drivers/STM32F4xx_HAL_Driver/Src/stm32f4xx_hal_flash.c ****   FLASH->CR |= FLASH_PSIZE_BYTE;
 165              		.loc 1 713 0
 166 000a 1A69     		ldr	r2, [r3, #16]
 167 000c 1A61     		str	r2, [r3, #16]
 714:Platform/STM32F4xx/drivers/STM32F4xx_HAL_Driver/Src/stm32f4xx_hal_flash.c ****   FLASH->CR |= FLASH_CR_PG;
 168              		.loc 1 714 0
 169 000e 1A69     		ldr	r2, [r3, #16]
 170 0010 42F00102 		orr	r2, r2, #1
 171 0014 1A61     		str	r2, [r3, #16]
 715:Platform/STM32F4xx/drivers/STM32F4xx_HAL_Driver/Src/stm32f4xx_hal_flash.c **** 
 716:Platform/STM32F4xx/drivers/STM32F4xx_HAL_Driver/Src/stm32f4xx_hal_flash.c ****   *(__IO uint8_t*)Address = Data;
 172              		.loc 1 716 0
 173 0016 0170     		strb	r1, [r0]
 717:Platform/STM32F4xx/drivers/STM32F4xx_HAL_Driver/Src/stm32f4xx_hal_flash.c **** }
 174              		.loc 1 717 0
 175 0018 7047     		bx	lr
 176              	.L13:
 177 001a 00BF     		.align	2
 178              	.L12:
 179 001c 003C0240 		.word	1073888256
 180              		.cfi_endproc
 181              	.LFE141:
 183              		.section	.text.FLASH_SetErrorCode,"ax",%progbits
 184              		.align	1
 185              		.syntax unified
 186              		.thumb
 187              		.thumb_func
 188              		.fpu fpv4-sp-d16
 190              	FLASH_SetErrorCode:
 191              	.LFB142:
 718:Platform/STM32F4xx/drivers/STM32F4xx_HAL_Driver/Src/stm32f4xx_hal_flash.c **** 
 719:Platform/STM32F4xx/drivers/STM32F4xx_HAL_Driver/Src/stm32f4xx_hal_flash.c **** /**
 720:Platform/STM32F4xx/drivers/STM32F4xx_HAL_Driver/Src/stm32f4xx_hal_flash.c ****   * @brief  Set the specific FLASH error flag.
 721:Platform/STM32F4xx/drivers/STM32F4xx_HAL_Driver/Src/stm32f4xx_hal_flash.c ****   * @retval None
 722:Platform/STM32F4xx/drivers/STM32F4xx_HAL_Driver/Src/stm32f4xx_hal_flash.c ****   */
 723:Platform/STM32F4xx/drivers/STM32F4xx_HAL_Driver/Src/stm32f4xx_hal_flash.c **** static void FLASH_SetErrorCode(void)
 724:Platform/STM32F4xx/drivers/STM32F4xx_HAL_Driver/Src/stm32f4xx_hal_flash.c **** { 
 192              		.loc 1 724 0
 193              		.cfi_startproc
 194              		@ args = 0, pretend = 0, frame = 0
 195              		@ frame_needed = 0, uses_anonymous_args = 0
 196              		@ link register save eliminated.
 725:Platform/STM32F4xx/drivers/STM32F4xx_HAL_Driver/Src/stm32f4xx_hal_flash.c ****   if(__HAL_FLASH_GET_FLAG(FLASH_FLAG_WRPERR) != RESET)
ARM GAS  /tmp/ccnX3E2Z.s 			page 17


 197              		.loc 1 725 0
 198 0000 274B     		ldr	r3, .L21
 199 0002 DB68     		ldr	r3, [r3, #12]
 200 0004 13F0100F 		tst	r3, #16
 201 0008 07D0     		beq	.L15
 726:Platform/STM32F4xx/drivers/STM32F4xx_HAL_Driver/Src/stm32f4xx_hal_flash.c ****   {
 727:Platform/STM32F4xx/drivers/STM32F4xx_HAL_Driver/Src/stm32f4xx_hal_flash.c ****    pFlash.ErrorCode |= HAL_FLASH_ERROR_WRP;
 202              		.loc 1 727 0
 203 000a 264A     		ldr	r2, .L21+4
 204 000c D369     		ldr	r3, [r2, #28]
 205 000e 43F01003 		orr	r3, r3, #16
 206 0012 D361     		str	r3, [r2, #28]
 728:Platform/STM32F4xx/drivers/STM32F4xx_HAL_Driver/Src/stm32f4xx_hal_flash.c ****    
 729:Platform/STM32F4xx/drivers/STM32F4xx_HAL_Driver/Src/stm32f4xx_hal_flash.c ****    /* Clear FLASH write protection error pending bit */
 730:Platform/STM32F4xx/drivers/STM32F4xx_HAL_Driver/Src/stm32f4xx_hal_flash.c ****    __HAL_FLASH_CLEAR_FLAG(FLASH_FLAG_WRPERR);
 207              		.loc 1 730 0
 208 0014 224B     		ldr	r3, .L21
 209 0016 1022     		movs	r2, #16
 210 0018 DA60     		str	r2, [r3, #12]
 211              	.L15:
 731:Platform/STM32F4xx/drivers/STM32F4xx_HAL_Driver/Src/stm32f4xx_hal_flash.c ****   }
 732:Platform/STM32F4xx/drivers/STM32F4xx_HAL_Driver/Src/stm32f4xx_hal_flash.c ****   
 733:Platform/STM32F4xx/drivers/STM32F4xx_HAL_Driver/Src/stm32f4xx_hal_flash.c ****   if(__HAL_FLASH_GET_FLAG(FLASH_FLAG_PGAERR) != RESET)
 212              		.loc 1 733 0
 213 001a 214B     		ldr	r3, .L21
 214 001c DB68     		ldr	r3, [r3, #12]
 215 001e 13F0200F 		tst	r3, #32
 216 0022 07D0     		beq	.L16
 734:Platform/STM32F4xx/drivers/STM32F4xx_HAL_Driver/Src/stm32f4xx_hal_flash.c ****   {
 735:Platform/STM32F4xx/drivers/STM32F4xx_HAL_Driver/Src/stm32f4xx_hal_flash.c ****    pFlash.ErrorCode |= HAL_FLASH_ERROR_PGA;
 217              		.loc 1 735 0
 218 0024 1F4A     		ldr	r2, .L21+4
 219 0026 D369     		ldr	r3, [r2, #28]
 220 0028 43F00803 		orr	r3, r3, #8
 221 002c D361     		str	r3, [r2, #28]
 736:Platform/STM32F4xx/drivers/STM32F4xx_HAL_Driver/Src/stm32f4xx_hal_flash.c ****    
 737:Platform/STM32F4xx/drivers/STM32F4xx_HAL_Driver/Src/stm32f4xx_hal_flash.c ****    /* Clear FLASH Programming alignment error pending bit */
 738:Platform/STM32F4xx/drivers/STM32F4xx_HAL_Driver/Src/stm32f4xx_hal_flash.c ****    __HAL_FLASH_CLEAR_FLAG(FLASH_FLAG_PGAERR);
 222              		.loc 1 738 0
 223 002e 1C4B     		ldr	r3, .L21
 224 0030 2022     		movs	r2, #32
 225 0032 DA60     		str	r2, [r3, #12]
 226              	.L16:
 739:Platform/STM32F4xx/drivers/STM32F4xx_HAL_Driver/Src/stm32f4xx_hal_flash.c ****   }
 740:Platform/STM32F4xx/drivers/STM32F4xx_HAL_Driver/Src/stm32f4xx_hal_flash.c ****   
 741:Platform/STM32F4xx/drivers/STM32F4xx_HAL_Driver/Src/stm32f4xx_hal_flash.c ****   if(__HAL_FLASH_GET_FLAG(FLASH_FLAG_PGPERR) != RESET)
 227              		.loc 1 741 0
 228 0034 1A4B     		ldr	r3, .L21
 229 0036 DB68     		ldr	r3, [r3, #12]
 230 0038 13F0400F 		tst	r3, #64
 231 003c 07D0     		beq	.L17
 742:Platform/STM32F4xx/drivers/STM32F4xx_HAL_Driver/Src/stm32f4xx_hal_flash.c ****   {
 743:Platform/STM32F4xx/drivers/STM32F4xx_HAL_Driver/Src/stm32f4xx_hal_flash.c ****     pFlash.ErrorCode |= HAL_FLASH_ERROR_PGP;
 232              		.loc 1 743 0
 233 003e 194A     		ldr	r2, .L21+4
 234 0040 D369     		ldr	r3, [r2, #28]
 235 0042 43F00403 		orr	r3, r3, #4
ARM GAS  /tmp/ccnX3E2Z.s 			page 18


 236 0046 D361     		str	r3, [r2, #28]
 744:Platform/STM32F4xx/drivers/STM32F4xx_HAL_Driver/Src/stm32f4xx_hal_flash.c ****     
 745:Platform/STM32F4xx/drivers/STM32F4xx_HAL_Driver/Src/stm32f4xx_hal_flash.c ****     /* Clear FLASH Programming parallelism error pending bit */
 746:Platform/STM32F4xx/drivers/STM32F4xx_HAL_Driver/Src/stm32f4xx_hal_flash.c ****     __HAL_FLASH_CLEAR_FLAG(FLASH_FLAG_PGPERR);
 237              		.loc 1 746 0
 238 0048 154B     		ldr	r3, .L21
 239 004a 4022     		movs	r2, #64
 240 004c DA60     		str	r2, [r3, #12]
 241              	.L17:
 747:Platform/STM32F4xx/drivers/STM32F4xx_HAL_Driver/Src/stm32f4xx_hal_flash.c ****   }
 748:Platform/STM32F4xx/drivers/STM32F4xx_HAL_Driver/Src/stm32f4xx_hal_flash.c ****   
 749:Platform/STM32F4xx/drivers/STM32F4xx_HAL_Driver/Src/stm32f4xx_hal_flash.c ****   if(__HAL_FLASH_GET_FLAG(FLASH_FLAG_PGSERR) != RESET)
 242              		.loc 1 749 0
 243 004e 144B     		ldr	r3, .L21
 244 0050 DB68     		ldr	r3, [r3, #12]
 245 0052 13F0800F 		tst	r3, #128
 246 0056 07D0     		beq	.L18
 750:Platform/STM32F4xx/drivers/STM32F4xx_HAL_Driver/Src/stm32f4xx_hal_flash.c ****   {
 751:Platform/STM32F4xx/drivers/STM32F4xx_HAL_Driver/Src/stm32f4xx_hal_flash.c ****     pFlash.ErrorCode |= HAL_FLASH_ERROR_PGS;
 247              		.loc 1 751 0
 248 0058 124A     		ldr	r2, .L21+4
 249 005a D369     		ldr	r3, [r2, #28]
 250 005c 43F00203 		orr	r3, r3, #2
 251 0060 D361     		str	r3, [r2, #28]
 752:Platform/STM32F4xx/drivers/STM32F4xx_HAL_Driver/Src/stm32f4xx_hal_flash.c ****     
 753:Platform/STM32F4xx/drivers/STM32F4xx_HAL_Driver/Src/stm32f4xx_hal_flash.c ****     /* Clear FLASH Programming sequence error pending bit */
 754:Platform/STM32F4xx/drivers/STM32F4xx_HAL_Driver/Src/stm32f4xx_hal_flash.c ****     __HAL_FLASH_CLEAR_FLAG(FLASH_FLAG_PGSERR);
 252              		.loc 1 754 0
 253 0062 0F4B     		ldr	r3, .L21
 254 0064 8022     		movs	r2, #128
 255 0066 DA60     		str	r2, [r3, #12]
 256              	.L18:
 755:Platform/STM32F4xx/drivers/STM32F4xx_HAL_Driver/Src/stm32f4xx_hal_flash.c ****   }
 756:Platform/STM32F4xx/drivers/STM32F4xx_HAL_Driver/Src/stm32f4xx_hal_flash.c **** #if defined(FLASH_SR_RDERR) 
 757:Platform/STM32F4xx/drivers/STM32F4xx_HAL_Driver/Src/stm32f4xx_hal_flash.c ****   if(__HAL_FLASH_GET_FLAG(FLASH_FLAG_RDERR) != RESET)
 257              		.loc 1 757 0
 258 0068 0D4B     		ldr	r3, .L21
 259 006a DB68     		ldr	r3, [r3, #12]
 260 006c 13F4807F 		tst	r3, #256
 261 0070 08D0     		beq	.L19
 758:Platform/STM32F4xx/drivers/STM32F4xx_HAL_Driver/Src/stm32f4xx_hal_flash.c ****   {
 759:Platform/STM32F4xx/drivers/STM32F4xx_HAL_Driver/Src/stm32f4xx_hal_flash.c ****     pFlash.ErrorCode |= HAL_FLASH_ERROR_RD;
 262              		.loc 1 759 0
 263 0072 0C4A     		ldr	r2, .L21+4
 264 0074 D369     		ldr	r3, [r2, #28]
 265 0076 43F00103 		orr	r3, r3, #1
 266 007a D361     		str	r3, [r2, #28]
 760:Platform/STM32F4xx/drivers/STM32F4xx_HAL_Driver/Src/stm32f4xx_hal_flash.c ****     
 761:Platform/STM32F4xx/drivers/STM32F4xx_HAL_Driver/Src/stm32f4xx_hal_flash.c ****     /* Clear FLASH Proprietary readout protection error pending bit */
 762:Platform/STM32F4xx/drivers/STM32F4xx_HAL_Driver/Src/stm32f4xx_hal_flash.c ****     __HAL_FLASH_CLEAR_FLAG(FLASH_FLAG_RDERR);
 267              		.loc 1 762 0
 268 007c 084B     		ldr	r3, .L21
 269 007e 4FF48072 		mov	r2, #256
 270 0082 DA60     		str	r2, [r3, #12]
 271              	.L19:
 763:Platform/STM32F4xx/drivers/STM32F4xx_HAL_Driver/Src/stm32f4xx_hal_flash.c ****   }
 764:Platform/STM32F4xx/drivers/STM32F4xx_HAL_Driver/Src/stm32f4xx_hal_flash.c **** #endif /* FLASH_SR_RDERR */  
ARM GAS  /tmp/ccnX3E2Z.s 			page 19


 765:Platform/STM32F4xx/drivers/STM32F4xx_HAL_Driver/Src/stm32f4xx_hal_flash.c ****   if(__HAL_FLASH_GET_FLAG(FLASH_FLAG_OPERR) != RESET)
 272              		.loc 1 765 0
 273 0084 064B     		ldr	r3, .L21
 274 0086 DB68     		ldr	r3, [r3, #12]
 275 0088 13F0020F 		tst	r3, #2
 276 008c 07D0     		beq	.L14
 766:Platform/STM32F4xx/drivers/STM32F4xx_HAL_Driver/Src/stm32f4xx_hal_flash.c ****   {
 767:Platform/STM32F4xx/drivers/STM32F4xx_HAL_Driver/Src/stm32f4xx_hal_flash.c ****     pFlash.ErrorCode |= HAL_FLASH_ERROR_OPERATION;
 277              		.loc 1 767 0
 278 008e 054A     		ldr	r2, .L21+4
 279 0090 D369     		ldr	r3, [r2, #28]
 280 0092 43F02003 		orr	r3, r3, #32
 281 0096 D361     		str	r3, [r2, #28]
 768:Platform/STM32F4xx/drivers/STM32F4xx_HAL_Driver/Src/stm32f4xx_hal_flash.c ****     
 769:Platform/STM32F4xx/drivers/STM32F4xx_HAL_Driver/Src/stm32f4xx_hal_flash.c ****     /* Clear FLASH Operation error pending bit */
 770:Platform/STM32F4xx/drivers/STM32F4xx_HAL_Driver/Src/stm32f4xx_hal_flash.c ****     __HAL_FLASH_CLEAR_FLAG(FLASH_FLAG_OPERR);
 282              		.loc 1 770 0
 283 0098 014B     		ldr	r3, .L21
 284 009a 0222     		movs	r2, #2
 285 009c DA60     		str	r2, [r3, #12]
 286              	.L14:
 771:Platform/STM32F4xx/drivers/STM32F4xx_HAL_Driver/Src/stm32f4xx_hal_flash.c ****   }
 772:Platform/STM32F4xx/drivers/STM32F4xx_HAL_Driver/Src/stm32f4xx_hal_flash.c **** }
 287              		.loc 1 772 0
 288 009e 7047     		bx	lr
 289              	.L22:
 290              		.align	2
 291              	.L21:
 292 00a0 003C0240 		.word	1073888256
 293 00a4 00000000 		.word	pFlash
 294              		.cfi_endproc
 295              	.LFE142:
 297              		.section	.text.HAL_FLASH_Program_IT,"ax",%progbits
 298              		.align	1
 299              		.global	HAL_FLASH_Program_IT
 300              		.syntax unified
 301              		.thumb
 302              		.thumb_func
 303              		.fpu fpv4-sp-d16
 305              	HAL_FLASH_Program_IT:
 306              	.LFB127:
 231:Platform/STM32F4xx/drivers/STM32F4xx_HAL_Driver/Src/stm32f4xx_hal_flash.c ****   HAL_StatusTypeDef status = HAL_OK;
 307              		.loc 1 231 0
 308              		.cfi_startproc
 309              		@ args = 0, pretend = 0, frame = 0
 310              		@ frame_needed = 0, uses_anonymous_args = 0
 311              	.LVL4:
 312 0000 70B5     		push	{r4, r5, r6, lr}
 313              	.LCFI2:
 314              		.cfi_def_cfa_offset 16
 315              		.cfi_offset 4, -16
 316              		.cfi_offset 5, -12
 317              		.cfi_offset 6, -8
 318              		.cfi_offset 14, -4
 319              	.LVL5:
 235:Platform/STM32F4xx/drivers/STM32F4xx_HAL_Driver/Src/stm32f4xx_hal_flash.c **** 
 320              		.loc 1 235 0
ARM GAS  /tmp/ccnX3E2Z.s 			page 20


 321 0002 174D     		ldr	r5, .L33
 322 0004 2D7E     		ldrb	r5, [r5, #24]	@ zero_extendqisi2
 323 0006 012D     		cmp	r5, #1
 324 0008 28D0     		beq	.L28
 325 000a 0446     		mov	r4, r0
 326 000c 0846     		mov	r0, r1
 327              	.LVL6:
 235:Platform/STM32F4xx/drivers/STM32F4xx_HAL_Driver/Src/stm32f4xx_hal_flash.c **** 
 328              		.loc 1 235 0 is_stmt 0 discriminator 2
 329 000e 1449     		ldr	r1, .L33
 330              	.LVL7:
 331 0010 0125     		movs	r5, #1
 332 0012 0D76     		strb	r5, [r1, #24]
 241:Platform/STM32F4xx/drivers/STM32F4xx_HAL_Driver/Src/stm32f4xx_hal_flash.c ****   
 333              		.loc 1 241 0 is_stmt 1 discriminator 2
 334 0014 134D     		ldr	r5, .L33+4
 335 0016 2E69     		ldr	r6, [r5, #16]
 336 0018 46F08076 		orr	r6, r6, #16777216
 337 001c 2E61     		str	r6, [r5, #16]
 244:Platform/STM32F4xx/drivers/STM32F4xx_HAL_Driver/Src/stm32f4xx_hal_flash.c **** 
 338              		.loc 1 244 0 discriminator 2
 339 001e 2E69     		ldr	r6, [r5, #16]
 340 0020 46F00076 		orr	r6, r6, #33554432
 341 0024 2E61     		str	r6, [r5, #16]
 246:Platform/STM32F4xx/drivers/STM32F4xx_HAL_Driver/Src/stm32f4xx_hal_flash.c ****   pFlash.Address = Address;
 342              		.loc 1 246 0 discriminator 2
 343 0026 0325     		movs	r5, #3
 344 0028 0D70     		strb	r5, [r1]
 247:Platform/STM32F4xx/drivers/STM32F4xx_HAL_Driver/Src/stm32f4xx_hal_flash.c **** 
 345              		.loc 1 247 0 discriminator 2
 346 002a 4861     		str	r0, [r1, #20]
 249:Platform/STM32F4xx/drivers/STM32F4xx_HAL_Driver/Src/stm32f4xx_hal_flash.c ****   {
 347              		.loc 1 249 0 discriminator 2
 348 002c 3CB1     		cbz	r4, .L30
 254:Platform/STM32F4xx/drivers/STM32F4xx_HAL_Driver/Src/stm32f4xx_hal_flash.c ****   {
 349              		.loc 1 254 0
 350 002e 012C     		cmp	r4, #1
 351 0030 0AD0     		beq	.L31
 259:Platform/STM32F4xx/drivers/STM32F4xx_HAL_Driver/Src/stm32f4xx_hal_flash.c ****   {
 352              		.loc 1 259 0
 353 0032 022C     		cmp	r4, #2
 354 0034 0DD0     		beq	.L32
 267:Platform/STM32F4xx/drivers/STM32F4xx_HAL_Driver/Src/stm32f4xx_hal_flash.c ****   }
 355              		.loc 1 267 0
 356 0036 FFF7FEFF 		bl	FLASH_Program_DoubleWord
 357              	.LVL8:
 270:Platform/STM32F4xx/drivers/STM32F4xx_HAL_Driver/Src/stm32f4xx_hal_flash.c **** }
 358              		.loc 1 270 0
 359 003a 0020     		movs	r0, #0
 360              	.LVL9:
 361              	.L24:
 271:Platform/STM32F4xx/drivers/STM32F4xx_HAL_Driver/Src/stm32f4xx_hal_flash.c **** 
 362              		.loc 1 271 0
 363 003c 70BD     		pop	{r4, r5, r6, pc}
 364              	.LVL10:
 365              	.L30:
 252:Platform/STM32F4xx/drivers/STM32F4xx_HAL_Driver/Src/stm32f4xx_hal_flash.c ****   }
ARM GAS  /tmp/ccnX3E2Z.s 			page 21


 366              		.loc 1 252 0
 367 003e D1B2     		uxtb	r1, r2
 368 0040 FFF7FEFF 		bl	FLASH_Program_Byte
 369              	.LVL11:
 270:Platform/STM32F4xx/drivers/STM32F4xx_HAL_Driver/Src/stm32f4xx_hal_flash.c **** }
 370              		.loc 1 270 0
 371 0044 0020     		movs	r0, #0
 372 0046 F9E7     		b	.L24
 373              	.LVL12:
 374              	.L31:
 257:Platform/STM32F4xx/drivers/STM32F4xx_HAL_Driver/Src/stm32f4xx_hal_flash.c ****   }
 375              		.loc 1 257 0
 376 0048 91B2     		uxth	r1, r2
 377 004a FFF7FEFF 		bl	FLASH_Program_HalfWord
 378              	.LVL13:
 270:Platform/STM32F4xx/drivers/STM32F4xx_HAL_Driver/Src/stm32f4xx_hal_flash.c **** }
 379              		.loc 1 270 0
 380 004e 0020     		movs	r0, #0
 381 0050 F4E7     		b	.L24
 382              	.LVL14:
 383              	.L32:
 262:Platform/STM32F4xx/drivers/STM32F4xx_HAL_Driver/Src/stm32f4xx_hal_flash.c ****   }
 384              		.loc 1 262 0
 385 0052 1146     		mov	r1, r2
 386 0054 FFF7FEFF 		bl	FLASH_Program_Word
 387              	.LVL15:
 270:Platform/STM32F4xx/drivers/STM32F4xx_HAL_Driver/Src/stm32f4xx_hal_flash.c **** }
 388              		.loc 1 270 0
 389 0058 0020     		movs	r0, #0
 390 005a EFE7     		b	.L24
 391              	.LVL16:
 392              	.L28:
 235:Platform/STM32F4xx/drivers/STM32F4xx_HAL_Driver/Src/stm32f4xx_hal_flash.c **** 
 393              		.loc 1 235 0
 394 005c 0220     		movs	r0, #2
 395              	.LVL17:
 396 005e EDE7     		b	.L24
 397              	.L34:
 398              		.align	2
 399              	.L33:
 400 0060 00000000 		.word	pFlash
 401 0064 003C0240 		.word	1073888256
 402              		.cfi_endproc
 403              	.LFE127:
 405              		.section	.text.HAL_FLASH_EndOfOperationCallback,"ax",%progbits
 406              		.align	1
 407              		.weak	HAL_FLASH_EndOfOperationCallback
 408              		.syntax unified
 409              		.thumb
 410              		.thumb_func
 411              		.fpu fpv4-sp-d16
 413              	HAL_FLASH_EndOfOperationCallback:
 414              	.LFB129:
 401:Platform/STM32F4xx/drivers/STM32F4xx_HAL_Driver/Src/stm32f4xx_hal_flash.c ****   /* Prevent unused argument(s) compilation warning */
 415              		.loc 1 401 0
 416              		.cfi_startproc
 417              		@ args = 0, pretend = 0, frame = 0
ARM GAS  /tmp/ccnX3E2Z.s 			page 22


 418              		@ frame_needed = 0, uses_anonymous_args = 0
 419              		@ link register save eliminated.
 420              	.LVL18:
 407:Platform/STM32F4xx/drivers/STM32F4xx_HAL_Driver/Src/stm32f4xx_hal_flash.c **** 
 421              		.loc 1 407 0
 422 0000 7047     		bx	lr
 423              		.cfi_endproc
 424              	.LFE129:
 426              		.section	.text.HAL_FLASH_OperationErrorCallback,"ax",%progbits
 427              		.align	1
 428              		.weak	HAL_FLASH_OperationErrorCallback
 429              		.syntax unified
 430              		.thumb
 431              		.thumb_func
 432              		.fpu fpv4-sp-d16
 434              	HAL_FLASH_OperationErrorCallback:
 435              	.LFB130:
 418:Platform/STM32F4xx/drivers/STM32F4xx_HAL_Driver/Src/stm32f4xx_hal_flash.c ****   /* Prevent unused argument(s) compilation warning */
 436              		.loc 1 418 0
 437              		.cfi_startproc
 438              		@ args = 0, pretend = 0, frame = 0
 439              		@ frame_needed = 0, uses_anonymous_args = 0
 440              		@ link register save eliminated.
 441              	.LVL19:
 424:Platform/STM32F4xx/drivers/STM32F4xx_HAL_Driver/Src/stm32f4xx_hal_flash.c **** 
 442              		.loc 1 424 0
 443 0000 7047     		bx	lr
 444              		.cfi_endproc
 445              	.LFE130:
 447              		.section	.text.HAL_FLASH_IRQHandler,"ax",%progbits
 448              		.align	1
 449              		.global	HAL_FLASH_IRQHandler
 450              		.syntax unified
 451              		.thumb
 452              		.thumb_func
 453              		.fpu fpv4-sp-d16
 455              	HAL_FLASH_IRQHandler:
 456              	.LFB128:
 278:Platform/STM32F4xx/drivers/STM32F4xx_HAL_Driver/Src/stm32f4xx_hal_flash.c ****   uint32_t addresstmp = 0U;
 457              		.loc 1 278 0
 458              		.cfi_startproc
 459              		@ args = 0, pretend = 0, frame = 0
 460              		@ frame_needed = 0, uses_anonymous_args = 0
 461 0000 10B5     		push	{r4, lr}
 462              	.LCFI3:
 463              		.cfi_def_cfa_offset 8
 464              		.cfi_offset 4, -8
 465              		.cfi_offset 14, -4
 466              	.LVL20:
 283:Platform/STM32F4xx/drivers/STM32F4xx_HAL_Driver/Src/stm32f4xx_hal_flash.c ****     FLASH_FLAG_PGPERR | FLASH_FLAG_PGSERR | FLASH_FLAG_RDERR)) != RESET)
 467              		.loc 1 283 0
 468 0002 3A4B     		ldr	r3, .L53
 469 0004 DB68     		ldr	r3, [r3, #12]
 470 0006 13F4F97F 		tst	r3, #498
 471 000a 13D0     		beq	.L38
 290:Platform/STM32F4xx/drivers/STM32F4xx_HAL_Driver/Src/stm32f4xx_hal_flash.c ****     {
 472              		.loc 1 290 0
ARM GAS  /tmp/ccnX3E2Z.s 			page 23


 473 000c 384B     		ldr	r3, .L53+4
 474 000e 1B78     		ldrb	r3, [r3]	@ zero_extendqisi2
 475 0010 DBB2     		uxtb	r3, r3
 476 0012 012B     		cmp	r3, #1
 477 0014 3BD0     		beq	.L49
 296:Platform/STM32F4xx/drivers/STM32F4xx_HAL_Driver/Src/stm32f4xx_hal_flash.c ****     {
 478              		.loc 1 296 0
 479 0016 364B     		ldr	r3, .L53+4
 480 0018 1B78     		ldrb	r3, [r3]	@ zero_extendqisi2
 481 001a DBB2     		uxtb	r3, r3
 482 001c 022B     		cmp	r3, #2
 483 001e 3CD0     		beq	.L50
 304:Platform/STM32F4xx/drivers/STM32F4xx_HAL_Driver/Src/stm32f4xx_hal_flash.c ****     }
 484              		.loc 1 304 0
 485 0020 334B     		ldr	r3, .L53+4
 486 0022 5C69     		ldr	r4, [r3, #20]
 487              	.LVL21:
 488              	.L40:
 308:Platform/STM32F4xx/drivers/STM32F4xx_HAL_Driver/Src/stm32f4xx_hal_flash.c ****     
 489              		.loc 1 308 0
 490 0024 FFF7FEFF 		bl	FLASH_SetErrorCode
 491              	.LVL22:
 311:Platform/STM32F4xx/drivers/STM32F4xx_HAL_Driver/Src/stm32f4xx_hal_flash.c ****     
 492              		.loc 1 311 0
 493 0028 2046     		mov	r0, r4
 494 002a FFF7FEFF 		bl	HAL_FLASH_OperationErrorCallback
 495              	.LVL23:
 314:Platform/STM32F4xx/drivers/STM32F4xx_HAL_Driver/Src/stm32f4xx_hal_flash.c ****   }
 496              		.loc 1 314 0
 497 002e 304B     		ldr	r3, .L53+4
 498 0030 0022     		movs	r2, #0
 499 0032 1A70     		strb	r2, [r3]
 500              	.LVL24:
 501              	.L38:
 318:Platform/STM32F4xx/drivers/STM32F4xx_HAL_Driver/Src/stm32f4xx_hal_flash.c ****   {
 502              		.loc 1 318 0
 503 0034 2D4B     		ldr	r3, .L53
 504 0036 DB68     		ldr	r3, [r3, #12]
 505 0038 13F0010F 		tst	r3, #1
 506 003c 13D0     		beq	.L42
 321:Platform/STM32F4xx/drivers/STM32F4xx_HAL_Driver/Src/stm32f4xx_hal_flash.c ****     
 507              		.loc 1 321 0
 508 003e 2B4B     		ldr	r3, .L53
 509 0040 0122     		movs	r2, #1
 510 0042 DA60     		str	r2, [r3, #12]
 323:Platform/STM32F4xx/drivers/STM32F4xx_HAL_Driver/Src/stm32f4xx_hal_flash.c ****     {
 511              		.loc 1 323 0
 512 0044 2A4B     		ldr	r3, .L53+4
 513 0046 1B78     		ldrb	r3, [r3]	@ zero_extendqisi2
 514 0048 DBB2     		uxtb	r3, r3
 515 004a 9342     		cmp	r3, r2
 516 004c 28D0     		beq	.L51
 356:Platform/STM32F4xx/drivers/STM32F4xx_HAL_Driver/Src/stm32f4xx_hal_flash.c ****       {
 517              		.loc 1 356 0
 518 004e 284B     		ldr	r3, .L53+4
 519 0050 1B78     		ldrb	r3, [r3]	@ zero_extendqisi2
 520 0052 DBB2     		uxtb	r3, r3
ARM GAS  /tmp/ccnX3E2Z.s 			page 24


 521 0054 022B     		cmp	r3, #2
 522 0056 41D0     		beq	.L52
 369:Platform/STM32F4xx/drivers/STM32F4xx_HAL_Driver/Src/stm32f4xx_hal_flash.c ****       }
 523              		.loc 1 369 0
 524 0058 254B     		ldr	r3, .L53+4
 525 005a 5869     		ldr	r0, [r3, #20]
 526 005c FFF7FEFF 		bl	HAL_FLASH_EndOfOperationCallback
 527              	.LVL25:
 528              	.L46:
 371:Platform/STM32F4xx/drivers/STM32F4xx_HAL_Driver/Src/stm32f4xx_hal_flash.c ****     }
 529              		.loc 1 371 0
 530 0060 234B     		ldr	r3, .L53+4
 531 0062 0022     		movs	r2, #0
 532 0064 1A70     		strb	r2, [r3]
 533              	.L42:
 375:Platform/STM32F4xx/drivers/STM32F4xx_HAL_Driver/Src/stm32f4xx_hal_flash.c ****   {
 534              		.loc 1 375 0
 535 0066 224B     		ldr	r3, .L53+4
 536 0068 1B78     		ldrb	r3, [r3]	@ zero_extendqisi2
 537 006a 7BB9     		cbnz	r3, .L37
 378:Platform/STM32F4xx/drivers/STM32F4xx_HAL_Driver/Src/stm32f4xx_hal_flash.c **** 
 538              		.loc 1 378 0
 539 006c 1F4B     		ldr	r3, .L53
 540 006e 1A69     		ldr	r2, [r3, #16]
 541 0070 22F0FF02 		bic	r2, r2, #255
 542 0074 1A61     		str	r2, [r3, #16]
 381:Platform/STM32F4xx/drivers/STM32F4xx_HAL_Driver/Src/stm32f4xx_hal_flash.c ****     
 543              		.loc 1 381 0
 544 0076 1A69     		ldr	r2, [r3, #16]
 545 0078 22F08072 		bic	r2, r2, #16777216
 546 007c 1A61     		str	r2, [r3, #16]
 384:Platform/STM32F4xx/drivers/STM32F4xx_HAL_Driver/Src/stm32f4xx_hal_flash.c ****     
 547              		.loc 1 384 0
 548 007e 1A69     		ldr	r2, [r3, #16]
 549 0080 22F00072 		bic	r2, r2, #33554432
 550 0084 1A61     		str	r2, [r3, #16]
 387:Platform/STM32F4xx/drivers/STM32F4xx_HAL_Driver/Src/stm32f4xx_hal_flash.c ****   }
 551              		.loc 1 387 0
 552 0086 1A4B     		ldr	r3, .L53+4
 553 0088 0022     		movs	r2, #0
 554 008a 1A76     		strb	r2, [r3, #24]
 555              	.L37:
 389:Platform/STM32F4xx/drivers/STM32F4xx_HAL_Driver/Src/stm32f4xx_hal_flash.c **** 
 556              		.loc 1 389 0
 557 008c 10BD     		pop	{r4, pc}
 558              	.LVL26:
 559              	.L49:
 293:Platform/STM32F4xx/drivers/STM32F4xx_HAL_Driver/Src/stm32f4xx_hal_flash.c ****       pFlash.Sector = 0xFFFFFFFFU;
 560              		.loc 1 293 0
 561 008e 184B     		ldr	r3, .L53+4
 562 0090 DC68     		ldr	r4, [r3, #12]
 563              	.LVL27:
 294:Platform/STM32F4xx/drivers/STM32F4xx_HAL_Driver/Src/stm32f4xx_hal_flash.c ****     }
 564              		.loc 1 294 0
 565 0092 4FF0FF32 		mov	r2, #-1
 566 0096 DA60     		str	r2, [r3, #12]
 567 0098 C4E7     		b	.L40
ARM GAS  /tmp/ccnX3E2Z.s 			page 25


 568              	.LVL28:
 569              	.L50:
 299:Platform/STM32F4xx/drivers/STM32F4xx_HAL_Driver/Src/stm32f4xx_hal_flash.c ****     }
 570              		.loc 1 299 0
 571 009a 154B     		ldr	r3, .L53+4
 572 009c 1C69     		ldr	r4, [r3, #16]
 573              	.LVL29:
 574 009e C1E7     		b	.L40
 575              	.LVL30:
 576              	.L51:
 326:Platform/STM32F4xx/drivers/STM32F4xx_HAL_Driver/Src/stm32f4xx_hal_flash.c ****       
 577              		.loc 1 326 0
 578 00a0 134B     		ldr	r3, .L53+4
 579 00a2 5A68     		ldr	r2, [r3, #4]
 580 00a4 013A     		subs	r2, r2, #1
 581 00a6 5A60     		str	r2, [r3, #4]
 329:Platform/STM32F4xx/drivers/STM32F4xx_HAL_Driver/Src/stm32f4xx_hal_flash.c ****       {
 582              		.loc 1 329 0
 583 00a8 5B68     		ldr	r3, [r3, #4]
 584 00aa 5BB1     		cbz	r3, .L44
 331:Platform/STM32F4xx/drivers/STM32F4xx_HAL_Driver/Src/stm32f4xx_hal_flash.c ****         /*Indicate user which sector has been erased*/
 585              		.loc 1 331 0
 586 00ac 104C     		ldr	r4, .L53+4
 587 00ae E068     		ldr	r0, [r4, #12]
 588              	.LVL31:
 333:Platform/STM32F4xx/drivers/STM32F4xx_HAL_Driver/Src/stm32f4xx_hal_flash.c ****         
 589              		.loc 1 333 0
 590 00b0 FFF7FEFF 		bl	HAL_FLASH_EndOfOperationCallback
 591              	.LVL32:
 336:Platform/STM32F4xx/drivers/STM32F4xx_HAL_Driver/Src/stm32f4xx_hal_flash.c ****         addresstmp = pFlash.Sector;
 592              		.loc 1 336 0
 593 00b4 E368     		ldr	r3, [r4, #12]
 594 00b6 0133     		adds	r3, r3, #1
 595 00b8 E360     		str	r3, [r4, #12]
 337:Platform/STM32F4xx/drivers/STM32F4xx_HAL_Driver/Src/stm32f4xx_hal_flash.c ****         FLASH_Erase_Sector(addresstmp, pFlash.VoltageForErase);
 596              		.loc 1 337 0
 597 00ba E068     		ldr	r0, [r4, #12]
 598              	.LVL33:
 338:Platform/STM32F4xx/drivers/STM32F4xx_HAL_Driver/Src/stm32f4xx_hal_flash.c ****       }
 599              		.loc 1 338 0
 600 00bc 217A     		ldrb	r1, [r4, #8]	@ zero_extendqisi2
 601 00be FFF7FEFF 		bl	FLASH_Erase_Sector
 602              	.LVL34:
 603 00c2 D0E7     		b	.L42
 604              	.L44:
 605              	.LVL35:
 344:Platform/STM32F4xx/drivers/STM32F4xx_HAL_Driver/Src/stm32f4xx_hal_flash.c ****         pFlash.ProcedureOnGoing = FLASH_PROC_NONE;
 606              		.loc 1 344 0
 607 00c4 0A4B     		ldr	r3, .L53+4
 608 00c6 4FF0FF34 		mov	r4, #-1
 609 00ca DC60     		str	r4, [r3, #12]
 345:Platform/STM32F4xx/drivers/STM32F4xx_HAL_Driver/Src/stm32f4xx_hal_flash.c ****         
 610              		.loc 1 345 0
 611 00cc 0022     		movs	r2, #0
 612 00ce 1A70     		strb	r2, [r3]
 348:Platform/STM32F4xx/drivers/STM32F4xx_HAL_Driver/Src/stm32f4xx_hal_flash.c ****                 
 613              		.loc 1 348 0
ARM GAS  /tmp/ccnX3E2Z.s 			page 26


 614 00d0 FFF7FEFF 		bl	FLASH_FlushCaches
 615              	.LVL36:
 351:Platform/STM32F4xx/drivers/STM32F4xx_HAL_Driver/Src/stm32f4xx_hal_flash.c ****       }
 616              		.loc 1 351 0
 617 00d4 2046     		mov	r0, r4
 618 00d6 FFF7FEFF 		bl	HAL_FLASH_EndOfOperationCallback
 619              	.LVL37:
 620 00da C4E7     		b	.L42
 621              	.LVL38:
 622              	.L52:
 360:Platform/STM32F4xx/drivers/STM32F4xx_HAL_Driver/Src/stm32f4xx_hal_flash.c **** 
 623              		.loc 1 360 0
 624 00dc FFF7FEFF 		bl	FLASH_FlushCaches
 625              	.LVL39:
 363:Platform/STM32F4xx/drivers/STM32F4xx_HAL_Driver/Src/stm32f4xx_hal_flash.c ****       }
 626              		.loc 1 363 0
 627 00e0 034B     		ldr	r3, .L53+4
 628 00e2 1869     		ldr	r0, [r3, #16]
 629 00e4 FFF7FEFF 		bl	HAL_FLASH_EndOfOperationCallback
 630              	.LVL40:
 631 00e8 BAE7     		b	.L46
 632              	.L54:
 633 00ea 00BF     		.align	2
 634              	.L53:
 635 00ec 003C0240 		.word	1073888256
 636 00f0 00000000 		.word	pFlash
 637              		.cfi_endproc
 638              	.LFE128:
 640              		.section	.text.HAL_FLASH_Unlock,"ax",%progbits
 641              		.align	1
 642              		.global	HAL_FLASH_Unlock
 643              		.syntax unified
 644              		.thumb
 645              		.thumb_func
 646              		.fpu fpv4-sp-d16
 648              	HAL_FLASH_Unlock:
 649              	.LFB131:
 450:Platform/STM32F4xx/drivers/STM32F4xx_HAL_Driver/Src/stm32f4xx_hal_flash.c ****   HAL_StatusTypeDef status = HAL_OK;
 650              		.loc 1 450 0
 651              		.cfi_startproc
 652              		@ args = 0, pretend = 0, frame = 0
 653              		@ frame_needed = 0, uses_anonymous_args = 0
 654              		@ link register save eliminated.
 655              	.LVL41:
 453:Platform/STM32F4xx/drivers/STM32F4xx_HAL_Driver/Src/stm32f4xx_hal_flash.c ****   {
 656              		.loc 1 453 0
 657 0000 094B     		ldr	r3, .L60
 658 0002 1B69     		ldr	r3, [r3, #16]
 659 0004 002B     		cmp	r3, #0
 660 0006 01DB     		blt	.L59
 451:Platform/STM32F4xx/drivers/STM32F4xx_HAL_Driver/Src/stm32f4xx_hal_flash.c **** 
 661              		.loc 1 451 0
 662 0008 0020     		movs	r0, #0
 663 000a 7047     		bx	lr
 664              	.L59:
 456:Platform/STM32F4xx/drivers/STM32F4xx_HAL_Driver/Src/stm32f4xx_hal_flash.c ****     WRITE_REG(FLASH->KEYR, FLASH_KEY2);
 665              		.loc 1 456 0
ARM GAS  /tmp/ccnX3E2Z.s 			page 27


 666 000c 064B     		ldr	r3, .L60
 667 000e 074A     		ldr	r2, .L60+4
 668 0010 5A60     		str	r2, [r3, #4]
 457:Platform/STM32F4xx/drivers/STM32F4xx_HAL_Driver/Src/stm32f4xx_hal_flash.c **** 
 669              		.loc 1 457 0
 670 0012 02F18832 		add	r2, r2, #-2004318072
 671 0016 5A60     		str	r2, [r3, #4]
 460:Platform/STM32F4xx/drivers/STM32F4xx_HAL_Driver/Src/stm32f4xx_hal_flash.c ****     {
 672              		.loc 1 460 0
 673 0018 1B69     		ldr	r3, [r3, #16]
 674 001a 002B     		cmp	r3, #0
 675 001c 01DB     		blt	.L58
 451:Platform/STM32F4xx/drivers/STM32F4xx_HAL_Driver/Src/stm32f4xx_hal_flash.c **** 
 676              		.loc 1 451 0
 677 001e 0020     		movs	r0, #0
 678 0020 7047     		bx	lr
 679              	.L58:
 462:Platform/STM32F4xx/drivers/STM32F4xx_HAL_Driver/Src/stm32f4xx_hal_flash.c ****     }
 680              		.loc 1 462 0
 681 0022 0120     		movs	r0, #1
 682              	.LVL42:
 467:Platform/STM32F4xx/drivers/STM32F4xx_HAL_Driver/Src/stm32f4xx_hal_flash.c **** 
 683              		.loc 1 467 0
 684 0024 7047     		bx	lr
 685              	.L61:
 686 0026 00BF     		.align	2
 687              	.L60:
 688 0028 003C0240 		.word	1073888256
 689 002c 23016745 		.word	1164378403
 690              		.cfi_endproc
 691              	.LFE131:
 693              		.section	.text.HAL_FLASH_Lock,"ax",%progbits
 694              		.align	1
 695              		.global	HAL_FLASH_Lock
 696              		.syntax unified
 697              		.thumb
 698              		.thumb_func
 699              		.fpu fpv4-sp-d16
 701              	HAL_FLASH_Lock:
 702              	.LFB132:
 474:Platform/STM32F4xx/drivers/STM32F4xx_HAL_Driver/Src/stm32f4xx_hal_flash.c ****   /* Set the LOCK Bit to lock the FLASH Registers access */
 703              		.loc 1 474 0
 704              		.cfi_startproc
 705              		@ args = 0, pretend = 0, frame = 0
 706              		@ frame_needed = 0, uses_anonymous_args = 0
 707              		@ link register save eliminated.
 476:Platform/STM32F4xx/drivers/STM32F4xx_HAL_Driver/Src/stm32f4xx_hal_flash.c ****   
 708              		.loc 1 476 0
 709 0000 034A     		ldr	r2, .L63
 710 0002 1369     		ldr	r3, [r2, #16]
 711 0004 43F00043 		orr	r3, r3, #-2147483648
 712 0008 1361     		str	r3, [r2, #16]
 479:Platform/STM32F4xx/drivers/STM32F4xx_HAL_Driver/Src/stm32f4xx_hal_flash.c **** 
 713              		.loc 1 479 0
 714 000a 0020     		movs	r0, #0
 715 000c 7047     		bx	lr
 716              	.L64:
ARM GAS  /tmp/ccnX3E2Z.s 			page 28


 717 000e 00BF     		.align	2
 718              	.L63:
 719 0010 003C0240 		.word	1073888256
 720              		.cfi_endproc
 721              	.LFE132:
 723              		.section	.text.HAL_FLASH_OB_Unlock,"ax",%progbits
 724              		.align	1
 725              		.global	HAL_FLASH_OB_Unlock
 726              		.syntax unified
 727              		.thumb
 728              		.thumb_func
 729              		.fpu fpv4-sp-d16
 731              	HAL_FLASH_OB_Unlock:
 732              	.LFB133:
 486:Platform/STM32F4xx/drivers/STM32F4xx_HAL_Driver/Src/stm32f4xx_hal_flash.c ****   if((FLASH->OPTCR & FLASH_OPTCR_OPTLOCK) != RESET)
 733              		.loc 1 486 0
 734              		.cfi_startproc
 735              		@ args = 0, pretend = 0, frame = 0
 736              		@ frame_needed = 0, uses_anonymous_args = 0
 737              		@ link register save eliminated.
 487:Platform/STM32F4xx/drivers/STM32F4xx_HAL_Driver/Src/stm32f4xx_hal_flash.c ****   {
 738              		.loc 1 487 0
 739 0000 074B     		ldr	r3, .L68
 740 0002 5B69     		ldr	r3, [r3, #20]
 741 0004 13F0010F 		tst	r3, #1
 742 0008 07D0     		beq	.L67
 490:Platform/STM32F4xx/drivers/STM32F4xx_HAL_Driver/Src/stm32f4xx_hal_flash.c ****     FLASH->OPTKEYR = FLASH_OPT_KEY2;
 743              		.loc 1 490 0
 744 000a 054B     		ldr	r3, .L68
 745 000c 054A     		ldr	r2, .L68+4
 746 000e 9A60     		str	r2, [r3, #8]
 491:Platform/STM32F4xx/drivers/STM32F4xx_HAL_Driver/Src/stm32f4xx_hal_flash.c ****   }
 747              		.loc 1 491 0
 748 0010 02F14432 		add	r2, r2, #1145324612
 749 0014 9A60     		str	r2, [r3, #8]
 498:Platform/STM32F4xx/drivers/STM32F4xx_HAL_Driver/Src/stm32f4xx_hal_flash.c **** }
 750              		.loc 1 498 0
 751 0016 0020     		movs	r0, #0
 752 0018 7047     		bx	lr
 753              	.L67:
 495:Platform/STM32F4xx/drivers/STM32F4xx_HAL_Driver/Src/stm32f4xx_hal_flash.c ****   }  
 754              		.loc 1 495 0
 755 001a 0120     		movs	r0, #1
 499:Platform/STM32F4xx/drivers/STM32F4xx_HAL_Driver/Src/stm32f4xx_hal_flash.c **** 
 756              		.loc 1 499 0
 757 001c 7047     		bx	lr
 758              	.L69:
 759 001e 00BF     		.align	2
 760              	.L68:
 761 0020 003C0240 		.word	1073888256
 762 0024 3B2A1908 		.word	135866939
 763              		.cfi_endproc
 764              	.LFE133:
 766              		.section	.text.HAL_FLASH_OB_Lock,"ax",%progbits
 767              		.align	1
 768              		.global	HAL_FLASH_OB_Lock
 769              		.syntax unified
ARM GAS  /tmp/ccnX3E2Z.s 			page 29


 770              		.thumb
 771              		.thumb_func
 772              		.fpu fpv4-sp-d16
 774              	HAL_FLASH_OB_Lock:
 775              	.LFB134:
 506:Platform/STM32F4xx/drivers/STM32F4xx_HAL_Driver/Src/stm32f4xx_hal_flash.c ****   /* Set the OPTLOCK Bit to lock the FLASH Option Byte Registers access */
 776              		.loc 1 506 0
 777              		.cfi_startproc
 778              		@ args = 0, pretend = 0, frame = 0
 779              		@ frame_needed = 0, uses_anonymous_args = 0
 780              		@ link register save eliminated.
 508:Platform/STM32F4xx/drivers/STM32F4xx_HAL_Driver/Src/stm32f4xx_hal_flash.c ****   
 781              		.loc 1 508 0
 782 0000 034A     		ldr	r2, .L71
 783 0002 5369     		ldr	r3, [r2, #20]
 784 0004 43F00103 		orr	r3, r3, #1
 785 0008 5361     		str	r3, [r2, #20]
 511:Platform/STM32F4xx/drivers/STM32F4xx_HAL_Driver/Src/stm32f4xx_hal_flash.c **** 
 786              		.loc 1 511 0
 787 000a 0020     		movs	r0, #0
 788 000c 7047     		bx	lr
 789              	.L72:
 790 000e 00BF     		.align	2
 791              	.L71:
 792 0010 003C0240 		.word	1073888256
 793              		.cfi_endproc
 794              	.LFE134:
 796              		.section	.text.HAL_FLASH_GetError,"ax",%progbits
 797              		.align	1
 798              		.global	HAL_FLASH_GetError
 799              		.syntax unified
 800              		.thumb
 801              		.thumb_func
 802              		.fpu fpv4-sp-d16
 804              	HAL_FLASH_GetError:
 805              	.LFB136:
 555:Platform/STM32F4xx/drivers/STM32F4xx_HAL_Driver/Src/stm32f4xx_hal_flash.c ****    return pFlash.ErrorCode;
 806              		.loc 1 555 0
 807              		.cfi_startproc
 808              		@ args = 0, pretend = 0, frame = 0
 809              		@ frame_needed = 0, uses_anonymous_args = 0
 810              		@ link register save eliminated.
 556:Platform/STM32F4xx/drivers/STM32F4xx_HAL_Driver/Src/stm32f4xx_hal_flash.c **** }  
 811              		.loc 1 556 0
 812 0000 014B     		ldr	r3, .L74
 813 0002 D869     		ldr	r0, [r3, #28]
 557:Platform/STM32F4xx/drivers/STM32F4xx_HAL_Driver/Src/stm32f4xx_hal_flash.c ****   
 814              		.loc 1 557 0
 815 0004 7047     		bx	lr
 816              	.L75:
 817 0006 00BF     		.align	2
 818              	.L74:
 819 0008 00000000 		.word	pFlash
 820              		.cfi_endproc
 821              	.LFE136:
 823              		.section	.text.FLASH_WaitForLastOperation,"ax",%progbits
 824              		.align	1
ARM GAS  /tmp/ccnX3E2Z.s 			page 30


 825              		.global	FLASH_WaitForLastOperation
 826              		.syntax unified
 827              		.thumb
 828              		.thumb_func
 829              		.fpu fpv4-sp-d16
 831              	FLASH_WaitForLastOperation:
 832              	.LFB137:
 569:Platform/STM32F4xx/drivers/STM32F4xx_HAL_Driver/Src/stm32f4xx_hal_flash.c ****   uint32_t tickstart = 0U;
 833              		.loc 1 569 0
 834              		.cfi_startproc
 835              		@ args = 0, pretend = 0, frame = 0
 836              		@ frame_needed = 0, uses_anonymous_args = 0
 837              	.LVL43:
 838 0000 38B5     		push	{r3, r4, r5, lr}
 839              	.LCFI4:
 840              		.cfi_def_cfa_offset 16
 841              		.cfi_offset 3, -16
 842              		.cfi_offset 4, -12
 843              		.cfi_offset 5, -8
 844              		.cfi_offset 14, -4
 845 0002 0446     		mov	r4, r0
 846              	.LVL44:
 573:Platform/STM32F4xx/drivers/STM32F4xx_HAL_Driver/Src/stm32f4xx_hal_flash.c ****   
 847              		.loc 1 573 0
 848 0004 154B     		ldr	r3, .L88
 849 0006 0022     		movs	r2, #0
 850 0008 DA61     		str	r2, [r3, #28]
 579:Platform/STM32F4xx/drivers/STM32F4xx_HAL_Driver/Src/stm32f4xx_hal_flash.c **** 
 851              		.loc 1 579 0
 852 000a FFF7FEFF 		bl	HAL_GetTick
 853              	.LVL45:
 854 000e 0546     		mov	r5, r0
 855              	.LVL46:
 856              	.L78:
 581:Platform/STM32F4xx/drivers/STM32F4xx_HAL_Driver/Src/stm32f4xx_hal_flash.c ****   { 
 857              		.loc 1 581 0
 858 0010 134B     		ldr	r3, .L88+4
 859 0012 DB68     		ldr	r3, [r3, #12]
 860 0014 13F4803F 		tst	r3, #65536
 861 0018 0AD0     		beq	.L86
 583:Platform/STM32F4xx/drivers/STM32F4xx_HAL_Driver/Src/stm32f4xx_hal_flash.c ****     {
 862              		.loc 1 583 0
 863 001a B4F1FF3F 		cmp	r4, #-1
 864 001e F7D0     		beq	.L78
 585:Platform/STM32F4xx/drivers/STM32F4xx_HAL_Driver/Src/stm32f4xx_hal_flash.c ****       {
 865              		.loc 1 585 0
 866 0020 CCB1     		cbz	r4, .L82
 585:Platform/STM32F4xx/drivers/STM32F4xx_HAL_Driver/Src/stm32f4xx_hal_flash.c ****       {
 867              		.loc 1 585 0 is_stmt 0 discriminator 1
 868 0022 FFF7FEFF 		bl	HAL_GetTick
 869              	.LVL47:
 870 0026 401B     		subs	r0, r0, r5
 871 0028 A042     		cmp	r0, r4
 872 002a F1D9     		bls	.L78
 587:Platform/STM32F4xx/drivers/STM32F4xx_HAL_Driver/Src/stm32f4xx_hal_flash.c ****       }
 873              		.loc 1 587 0 is_stmt 1
 874 002c 0320     		movs	r0, #3
ARM GAS  /tmp/ccnX3E2Z.s 			page 31


 875 002e 0DE0     		b	.L79
 876              	.L86:
 593:Platform/STM32F4xx/drivers/STM32F4xx_HAL_Driver/Src/stm32f4xx_hal_flash.c ****   {
 877              		.loc 1 593 0
 878 0030 0B4B     		ldr	r3, .L88+4
 879 0032 DB68     		ldr	r3, [r3, #12]
 880 0034 13F0010F 		tst	r3, #1
 881 0038 02D0     		beq	.L81
 596:Platform/STM32F4xx/drivers/STM32F4xx_HAL_Driver/Src/stm32f4xx_hal_flash.c ****   }
 882              		.loc 1 596 0
 883 003a 094B     		ldr	r3, .L88+4
 884 003c 0122     		movs	r2, #1
 885 003e DA60     		str	r2, [r3, #12]
 886              	.L81:
 599:Platform/STM32F4xx/drivers/STM32F4xx_HAL_Driver/Src/stm32f4xx_hal_flash.c ****                            FLASH_FLAG_PGPERR | FLASH_FLAG_PGSERR | FLASH_FLAG_RDERR)) != RESET)
 887              		.loc 1 599 0
 888 0040 074B     		ldr	r3, .L88+4
 889 0042 DB68     		ldr	r3, [r3, #12]
 890 0044 13F4F97F 		tst	r3, #498
 891 0048 01D1     		bne	.L87
 612:Platform/STM32F4xx/drivers/STM32F4xx_HAL_Driver/Src/stm32f4xx_hal_flash.c ****   
 892              		.loc 1 612 0
 893 004a 0020     		movs	r0, #0
 894              	.L79:
 614:Platform/STM32F4xx/drivers/STM32F4xx_HAL_Driver/Src/stm32f4xx_hal_flash.c **** 
 895              		.loc 1 614 0
 896 004c 38BD     		pop	{r3, r4, r5, pc}
 897              	.LVL48:
 898              	.L87:
 607:Platform/STM32F4xx/drivers/STM32F4xx_HAL_Driver/Src/stm32f4xx_hal_flash.c ****     return HAL_ERROR;
 899              		.loc 1 607 0
 900 004e FFF7FEFF 		bl	FLASH_SetErrorCode
 901              	.LVL49:
 608:Platform/STM32F4xx/drivers/STM32F4xx_HAL_Driver/Src/stm32f4xx_hal_flash.c ****   }
 902              		.loc 1 608 0
 903 0052 0120     		movs	r0, #1
 904 0054 FAE7     		b	.L79
 905              	.L82:
 587:Platform/STM32F4xx/drivers/STM32F4xx_HAL_Driver/Src/stm32f4xx_hal_flash.c ****       }
 906              		.loc 1 587 0
 907 0056 0320     		movs	r0, #3
 908 0058 F8E7     		b	.L79
 909              	.L89:
 910 005a 00BF     		.align	2
 911              	.L88:
 912 005c 00000000 		.word	pFlash
 913 0060 003C0240 		.word	1073888256
 914              		.cfi_endproc
 915              	.LFE137:
 917              		.section	.text.HAL_FLASH_Program,"ax",%progbits
 918              		.align	1
 919              		.global	HAL_FLASH_Program
 920              		.syntax unified
 921              		.thumb
 922              		.thumb_func
 923              		.fpu fpv4-sp-d16
 925              	HAL_FLASH_Program:
ARM GAS  /tmp/ccnX3E2Z.s 			page 32


 926              	.LFB126:
 173:Platform/STM32F4xx/drivers/STM32F4xx_HAL_Driver/Src/stm32f4xx_hal_flash.c ****   HAL_StatusTypeDef status = HAL_ERROR;
 927              		.loc 1 173 0
 928              		.cfi_startproc
 929              		@ args = 0, pretend = 0, frame = 0
 930              		@ frame_needed = 0, uses_anonymous_args = 0
 931              	.LVL50:
 932 0000 F8B5     		push	{r3, r4, r5, r6, r7, lr}
 933              	.LCFI5:
 934              		.cfi_def_cfa_offset 24
 935              		.cfi_offset 3, -24
 936              		.cfi_offset 4, -20
 937              		.cfi_offset 5, -16
 938              		.cfi_offset 6, -12
 939              		.cfi_offset 7, -8
 940              		.cfi_offset 14, -4
 941              	.LVL51:
 177:Platform/STM32F4xx/drivers/STM32F4xx_HAL_Driver/Src/stm32f4xx_hal_flash.c ****   
 942              		.loc 1 177 0
 943 0002 1D4C     		ldr	r4, .L102
 944 0004 247E     		ldrb	r4, [r4, #24]	@ zero_extendqisi2
 945 0006 012C     		cmp	r4, #1
 946 0008 34D0     		beq	.L97
 947 000a 1F46     		mov	r7, r3
 948 000c 1646     		mov	r6, r2
 949 000e 0D46     		mov	r5, r1
 950 0010 0446     		mov	r4, r0
 177:Platform/STM32F4xx/drivers/STM32F4xx_HAL_Driver/Src/stm32f4xx_hal_flash.c ****   
 951              		.loc 1 177 0 is_stmt 0 discriminator 2
 952 0012 194B     		ldr	r3, .L102
 953 0014 0122     		movs	r2, #1
 954              	.LVL52:
 955 0016 1A76     		strb	r2, [r3, #24]
 183:Platform/STM32F4xx/drivers/STM32F4xx_HAL_Driver/Src/stm32f4xx_hal_flash.c ****   
 956              		.loc 1 183 0 is_stmt 1 discriminator 2
 957 0018 4CF25030 		movw	r0, #50000
 958              	.LVL53:
 959 001c FFF7FEFF 		bl	FLASH_WaitForLastOperation
 960              	.LVL54:
 185:Platform/STM32F4xx/drivers/STM32F4xx_HAL_Driver/Src/stm32f4xx_hal_flash.c ****   {
 961              		.loc 1 185 0 discriminator 2
 962 0020 0146     		mov	r1, r0
 963 0022 98B9     		cbnz	r0, .L92
 187:Platform/STM32F4xx/drivers/STM32F4xx_HAL_Driver/Src/stm32f4xx_hal_flash.c ****     {
 964              		.loc 1 187 0
 965 0024 BCB1     		cbz	r4, .L99
 192:Platform/STM32F4xx/drivers/STM32F4xx_HAL_Driver/Src/stm32f4xx_hal_flash.c ****     {
 966              		.loc 1 192 0
 967 0026 012C     		cmp	r4, #1
 968 0028 1AD0     		beq	.L100
 197:Platform/STM32F4xx/drivers/STM32F4xx_HAL_Driver/Src/stm32f4xx_hal_flash.c ****     {
 969              		.loc 1 197 0
 970 002a 022C     		cmp	r4, #2
 971 002c 1DD0     		beq	.L101
 205:Platform/STM32F4xx/drivers/STM32F4xx_HAL_Driver/Src/stm32f4xx_hal_flash.c ****     }
 972              		.loc 1 205 0
 973 002e 3246     		mov	r2, r6
ARM GAS  /tmp/ccnX3E2Z.s 			page 33


 974 0030 3B46     		mov	r3, r7
 975 0032 2846     		mov	r0, r5
 976              	.LVL55:
 977 0034 FFF7FEFF 		bl	FLASH_Program_DoubleWord
 978              	.LVL56:
 979              	.L94:
 209:Platform/STM32F4xx/drivers/STM32F4xx_HAL_Driver/Src/stm32f4xx_hal_flash.c ****     
 980              		.loc 1 209 0
 981 0038 4CF25030 		movw	r0, #50000
 982 003c FFF7FEFF 		bl	FLASH_WaitForLastOperation
 983              	.LVL57:
 984 0040 0146     		mov	r1, r0
 985              	.LVL58:
 212:Platform/STM32F4xx/drivers/STM32F4xx_HAL_Driver/Src/stm32f4xx_hal_flash.c ****   }
 986              		.loc 1 212 0
 987 0042 0E4A     		ldr	r2, .L102+4
 988 0044 1369     		ldr	r3, [r2, #16]
 989 0046 23F00103 		bic	r3, r3, #1
 990 004a 1361     		str	r3, [r2, #16]
 991              	.LVL59:
 992              	.L92:
 216:Platform/STM32F4xx/drivers/STM32F4xx_HAL_Driver/Src/stm32f4xx_hal_flash.c ****   
 993              		.loc 1 216 0
 994 004c 0A4B     		ldr	r3, .L102
 995 004e 0022     		movs	r2, #0
 996 0050 1A76     		strb	r2, [r3, #24]
 997              	.LVL60:
 998              	.L91:
 219:Platform/STM32F4xx/drivers/STM32F4xx_HAL_Driver/Src/stm32f4xx_hal_flash.c **** 
 999              		.loc 1 219 0
 1000 0052 0846     		mov	r0, r1
 1001 0054 F8BD     		pop	{r3, r4, r5, r6, r7, pc}
 1002              	.LVL61:
 1003              	.L99:
 190:Platform/STM32F4xx/drivers/STM32F4xx_HAL_Driver/Src/stm32f4xx_hal_flash.c ****     }
 1004              		.loc 1 190 0
 1005 0056 F1B2     		uxtb	r1, r6
 1006 0058 2846     		mov	r0, r5
 1007              	.LVL62:
 1008 005a FFF7FEFF 		bl	FLASH_Program_Byte
 1009              	.LVL63:
 1010 005e EBE7     		b	.L94
 1011              	.LVL64:
 1012              	.L100:
 195:Platform/STM32F4xx/drivers/STM32F4xx_HAL_Driver/Src/stm32f4xx_hal_flash.c ****     }
 1013              		.loc 1 195 0
 1014 0060 B1B2     		uxth	r1, r6
 1015 0062 2846     		mov	r0, r5
 1016              	.LVL65:
 1017 0064 FFF7FEFF 		bl	FLASH_Program_HalfWord
 1018              	.LVL66:
 1019 0068 E6E7     		b	.L94
 1020              	.LVL67:
 1021              	.L101:
 200:Platform/STM32F4xx/drivers/STM32F4xx_HAL_Driver/Src/stm32f4xx_hal_flash.c ****     }
 1022              		.loc 1 200 0
 1023 006a 3146     		mov	r1, r6
ARM GAS  /tmp/ccnX3E2Z.s 			page 34


 1024 006c 2846     		mov	r0, r5
 1025              	.LVL68:
 1026 006e FFF7FEFF 		bl	FLASH_Program_Word
 1027              	.LVL69:
 1028 0072 E1E7     		b	.L94
 1029              	.LVL70:
 1030              	.L97:
 177:Platform/STM32F4xx/drivers/STM32F4xx_HAL_Driver/Src/stm32f4xx_hal_flash.c ****   
 1031              		.loc 1 177 0
 1032 0074 0221     		movs	r1, #2
 1033              	.LVL71:
 1034 0076 ECE7     		b	.L91
 1035              	.L103:
 1036              		.align	2
 1037              	.L102:
 1038 0078 00000000 		.word	pFlash
 1039 007c 003C0240 		.word	1073888256
 1040              		.cfi_endproc
 1041              	.LFE126:
 1043              		.section	.text.HAL_FLASH_OB_Launch,"ax",%progbits
 1044              		.align	1
 1045              		.global	HAL_FLASH_OB_Launch
 1046              		.syntax unified
 1047              		.thumb
 1048              		.thumb_func
 1049              		.fpu fpv4-sp-d16
 1051              	HAL_FLASH_OB_Launch:
 1052              	.LFB135:
 518:Platform/STM32F4xx/drivers/STM32F4xx_HAL_Driver/Src/stm32f4xx_hal_flash.c ****   /* Set the OPTSTRT bit in OPTCR register */
 1053              		.loc 1 518 0
 1054              		.cfi_startproc
 1055              		@ args = 0, pretend = 0, frame = 0
 1056              		@ frame_needed = 0, uses_anonymous_args = 0
 1057 0000 08B5     		push	{r3, lr}
 1058              	.LCFI6:
 1059              		.cfi_def_cfa_offset 8
 1060              		.cfi_offset 3, -8
 1061              		.cfi_offset 14, -4
 520:Platform/STM32F4xx/drivers/STM32F4xx_HAL_Driver/Src/stm32f4xx_hal_flash.c **** 
 1062              		.loc 1 520 0
 1063 0002 054A     		ldr	r2, .L106
 1064 0004 1378     		ldrb	r3, [r2]	@ zero_extendqisi2
 1065 0006 43F00203 		orr	r3, r3, #2
 1066 000a 1370     		strb	r3, [r2]
 523:Platform/STM32F4xx/drivers/STM32F4xx_HAL_Driver/Src/stm32f4xx_hal_flash.c **** }
 1067              		.loc 1 523 0
 1068 000c 4CF25030 		movw	r0, #50000
 1069 0010 FFF7FEFF 		bl	FLASH_WaitForLastOperation
 1070              	.LVL72:
 524:Platform/STM32F4xx/drivers/STM32F4xx_HAL_Driver/Src/stm32f4xx_hal_flash.c **** 
 1071              		.loc 1 524 0
 1072 0014 08BD     		pop	{r3, pc}
 1073              	.L107:
 1074 0016 00BF     		.align	2
 1075              	.L106:
 1076 0018 143C0240 		.word	1073888276
 1077              		.cfi_endproc
ARM GAS  /tmp/ccnX3E2Z.s 			page 35


 1078              	.LFE135:
 1080              		.comm	pFlash,32,4
 1081              		.text
 1082              	.Letext0:
 1083              		.file 2 "/home/wumingju/Documents/aos/AliOS-Things/build/compiler/gcc-arm-none-eabi/Linux64/arm-no
 1084              		.file 3 "/home/wumingju/Documents/aos/AliOS-Things/build/compiler/gcc-arm-none-eabi/Linux64/arm-no
 1085              		.file 4 "Platform/STM32F4xx/drivers/CMSIS/Include/core_cm4.h"
 1086              		.file 5 "Platform/STM32F4xx/drivers/CMSIS/Device/ST/STM32F4xx/Include/system_stm32f4xx.h"
 1087              		.file 6 "Platform/STM32F4xx/drivers/CMSIS/Device/ST/STM32F4xx/Include/stm32f411xe.h"
 1088              		.file 7 "/home/wumingju/Documents/aos/AliOS-Things/build/compiler/gcc-arm-none-eabi/Linux64/arm-no
 1089              		.file 8 "/home/wumingju/Documents/aos/AliOS-Things/build/compiler/gcc-arm-none-eabi/Linux64/arm-no
 1090              		.file 9 "/home/wumingju/Documents/aos/AliOS-Things/build/compiler/gcc-arm-none-eabi/Linux64/lib/gc
 1091              		.file 10 "/home/wumingju/Documents/aos/AliOS-Things/build/compiler/gcc-arm-none-eabi/Linux64/arm-n
 1092              		.file 11 "Platform/STM32F4xx/drivers/CMSIS/Device/ST/STM32F4xx/Include/stm32f4xx.h"
 1093              		.file 12 "Platform/STM32F4xx/drivers/STM32F4xx_HAL_Driver/Inc/stm32f4xx_hal_def.h"
 1094              		.file 13 "Platform/STM32F4xx/drivers/STM32F4xx_HAL_Driver/Inc/stm32f4xx_hal_flash.h"
 1095              		.file 14 "Platform/STM32F4xx/drivers/STM32F4xx_HAL_Driver/Inc/stm32f4xx_hal.h"
 1096              		.file 15 "Platform/STM32F4xx/drivers/STM32F4xx_HAL_Driver/Inc/stm32f4xx_hal_flash_ex.h"
ARM GAS  /tmp/ccnX3E2Z.s 			page 36

