ARM GAS  /tmp/ccSv8R8q.s 			page 1


   1              		.cpu cortex-m4
   2              		.eabi_attribute 27, 1
   3              		.eabi_attribute 28, 1
   4              		.eabi_attribute 20, 1
   5              		.eabi_attribute 21, 1
   6              		.eabi_attribute 23, 3
   7              		.eabi_attribute 24, 1
   8              		.eabi_attribute 25, 1
   9              		.eabi_attribute 26, 1
  10              		.eabi_attribute 30, 1
  11              		.eabi_attribute 34, 1
  12              		.eabi_attribute 18, 4
  13              		.file	"stm32f4xx_hal_rcc.c"
  14              		.text
  15              	.Ltext0:
  16              		.cfi_sections	.debug_frame
  17              		.section	.text.HAL_RCC_DeInit,"ax",%progbits
  18              		.align	1
  19              		.weak	HAL_RCC_DeInit
  20              		.syntax unified
  21              		.thumb
  22              		.thumb_func
  23              		.fpu fpv4-sp-d16
  25              	HAL_RCC_DeInit:
  26              	.LFB126:
  27              		.file 1 "Platform/STM32F4xx/drivers/STM32F4xx_HAL_Driver/Src/stm32f4xx_hal_rcc.c"
   1:Platform/STM32F4xx/drivers/STM32F4xx_HAL_Driver/Src/stm32f4xx_hal_rcc.c **** /**
   2:Platform/STM32F4xx/drivers/STM32F4xx_HAL_Driver/Src/stm32f4xx_hal_rcc.c ****   ******************************************************************************
   3:Platform/STM32F4xx/drivers/STM32F4xx_HAL_Driver/Src/stm32f4xx_hal_rcc.c ****   * @file    stm32f4xx_hal_rcc.c
   4:Platform/STM32F4xx/drivers/STM32F4xx_HAL_Driver/Src/stm32f4xx_hal_rcc.c ****   * @author  MCD Application Team
   5:Platform/STM32F4xx/drivers/STM32F4xx_HAL_Driver/Src/stm32f4xx_hal_rcc.c ****   * @brief   RCC HAL module driver.
   6:Platform/STM32F4xx/drivers/STM32F4xx_HAL_Driver/Src/stm32f4xx_hal_rcc.c ****   *          This file provides firmware functions to manage the following
   7:Platform/STM32F4xx/drivers/STM32F4xx_HAL_Driver/Src/stm32f4xx_hal_rcc.c ****   *          functionalities of the Reset and Clock Control (RCC) peripheral:
   8:Platform/STM32F4xx/drivers/STM32F4xx_HAL_Driver/Src/stm32f4xx_hal_rcc.c ****   *           + Initialization and de-initialization functions
   9:Platform/STM32F4xx/drivers/STM32F4xx_HAL_Driver/Src/stm32f4xx_hal_rcc.c ****   *           + Peripheral Control functions
  10:Platform/STM32F4xx/drivers/STM32F4xx_HAL_Driver/Src/stm32f4xx_hal_rcc.c ****   *
  11:Platform/STM32F4xx/drivers/STM32F4xx_HAL_Driver/Src/stm32f4xx_hal_rcc.c ****   @verbatim
  12:Platform/STM32F4xx/drivers/STM32F4xx_HAL_Driver/Src/stm32f4xx_hal_rcc.c ****   ==============================================================================
  13:Platform/STM32F4xx/drivers/STM32F4xx_HAL_Driver/Src/stm32f4xx_hal_rcc.c ****                       ##### RCC specific features #####
  14:Platform/STM32F4xx/drivers/STM32F4xx_HAL_Driver/Src/stm32f4xx_hal_rcc.c ****   ==============================================================================
  15:Platform/STM32F4xx/drivers/STM32F4xx_HAL_Driver/Src/stm32f4xx_hal_rcc.c ****     [..]
  16:Platform/STM32F4xx/drivers/STM32F4xx_HAL_Driver/Src/stm32f4xx_hal_rcc.c ****       After reset the device is running from Internal High Speed oscillator
  17:Platform/STM32F4xx/drivers/STM32F4xx_HAL_Driver/Src/stm32f4xx_hal_rcc.c ****       (HSI 16MHz) with Flash 0 wait state, Flash prefetch buffer, D-Cache
  18:Platform/STM32F4xx/drivers/STM32F4xx_HAL_Driver/Src/stm32f4xx_hal_rcc.c ****       and I-Cache are disabled, and all peripherals are off except internal
  19:Platform/STM32F4xx/drivers/STM32F4xx_HAL_Driver/Src/stm32f4xx_hal_rcc.c ****       SRAM, Flash and JTAG.
  20:Platform/STM32F4xx/drivers/STM32F4xx_HAL_Driver/Src/stm32f4xx_hal_rcc.c ****       (+) There is no prescaler on High speed (AHB) and Low speed (APB) busses;
  21:Platform/STM32F4xx/drivers/STM32F4xx_HAL_Driver/Src/stm32f4xx_hal_rcc.c ****           all peripherals mapped on these busses are running at HSI speed.
  22:Platform/STM32F4xx/drivers/STM32F4xx_HAL_Driver/Src/stm32f4xx_hal_rcc.c ****       (+) The clock for all peripherals is switched off, except the SRAM and FLASH.
  23:Platform/STM32F4xx/drivers/STM32F4xx_HAL_Driver/Src/stm32f4xx_hal_rcc.c ****       (+) All GPIOs are in input floating state, except the JTAG pins which
  24:Platform/STM32F4xx/drivers/STM32F4xx_HAL_Driver/Src/stm32f4xx_hal_rcc.c ****           are assigned to be used for debug purpose.
  25:Platform/STM32F4xx/drivers/STM32F4xx_HAL_Driver/Src/stm32f4xx_hal_rcc.c **** 
  26:Platform/STM32F4xx/drivers/STM32F4xx_HAL_Driver/Src/stm32f4xx_hal_rcc.c ****     [..]
  27:Platform/STM32F4xx/drivers/STM32F4xx_HAL_Driver/Src/stm32f4xx_hal_rcc.c ****       Once the device started from reset, the user application has to:
  28:Platform/STM32F4xx/drivers/STM32F4xx_HAL_Driver/Src/stm32f4xx_hal_rcc.c ****       (+) Configure the clock source to be used to drive the System clock
  29:Platform/STM32F4xx/drivers/STM32F4xx_HAL_Driver/Src/stm32f4xx_hal_rcc.c ****           (if the application needs higher frequency/performance)
  30:Platform/STM32F4xx/drivers/STM32F4xx_HAL_Driver/Src/stm32f4xx_hal_rcc.c ****       (+) Configure the System clock frequency and Flash settings
  31:Platform/STM32F4xx/drivers/STM32F4xx_HAL_Driver/Src/stm32f4xx_hal_rcc.c ****       (+) Configure the AHB and APB busses prescalers
ARM GAS  /tmp/ccSv8R8q.s 			page 2


  32:Platform/STM32F4xx/drivers/STM32F4xx_HAL_Driver/Src/stm32f4xx_hal_rcc.c ****       (+) Enable the clock for the peripheral(s) to be used
  33:Platform/STM32F4xx/drivers/STM32F4xx_HAL_Driver/Src/stm32f4xx_hal_rcc.c ****       (+) Configure the clock source(s) for peripherals which clocks are not
  34:Platform/STM32F4xx/drivers/STM32F4xx_HAL_Driver/Src/stm32f4xx_hal_rcc.c ****           derived from the System clock (I2S, RTC, ADC, USB OTG FS/SDIO/RNG)
  35:Platform/STM32F4xx/drivers/STM32F4xx_HAL_Driver/Src/stm32f4xx_hal_rcc.c **** 
  36:Platform/STM32F4xx/drivers/STM32F4xx_HAL_Driver/Src/stm32f4xx_hal_rcc.c ****                       ##### RCC Limitations #####
  37:Platform/STM32F4xx/drivers/STM32F4xx_HAL_Driver/Src/stm32f4xx_hal_rcc.c ****   ==============================================================================
  38:Platform/STM32F4xx/drivers/STM32F4xx_HAL_Driver/Src/stm32f4xx_hal_rcc.c ****     [..]
  39:Platform/STM32F4xx/drivers/STM32F4xx_HAL_Driver/Src/stm32f4xx_hal_rcc.c ****       A delay between an RCC peripheral clock enable and the effective peripheral
  40:Platform/STM32F4xx/drivers/STM32F4xx_HAL_Driver/Src/stm32f4xx_hal_rcc.c ****       enabling should be taken into account in order to manage the peripheral read/write
  41:Platform/STM32F4xx/drivers/STM32F4xx_HAL_Driver/Src/stm32f4xx_hal_rcc.c ****       from/to registers.
  42:Platform/STM32F4xx/drivers/STM32F4xx_HAL_Driver/Src/stm32f4xx_hal_rcc.c ****       (+) This delay depends on the peripheral mapping.
  43:Platform/STM32F4xx/drivers/STM32F4xx_HAL_Driver/Src/stm32f4xx_hal_rcc.c ****       (+) If peripheral is mapped on AHB: the delay is 2 AHB clock cycle
  44:Platform/STM32F4xx/drivers/STM32F4xx_HAL_Driver/Src/stm32f4xx_hal_rcc.c ****           after the clock enable bit is set on the hardware register
  45:Platform/STM32F4xx/drivers/STM32F4xx_HAL_Driver/Src/stm32f4xx_hal_rcc.c ****       (+) If peripheral is mapped on APB: the delay is 2 APB clock cycle
  46:Platform/STM32F4xx/drivers/STM32F4xx_HAL_Driver/Src/stm32f4xx_hal_rcc.c ****           after the clock enable bit is set on the hardware register
  47:Platform/STM32F4xx/drivers/STM32F4xx_HAL_Driver/Src/stm32f4xx_hal_rcc.c **** 
  48:Platform/STM32F4xx/drivers/STM32F4xx_HAL_Driver/Src/stm32f4xx_hal_rcc.c ****     [..]
  49:Platform/STM32F4xx/drivers/STM32F4xx_HAL_Driver/Src/stm32f4xx_hal_rcc.c ****       Implemented Workaround:
  50:Platform/STM32F4xx/drivers/STM32F4xx_HAL_Driver/Src/stm32f4xx_hal_rcc.c ****       (+) For AHB & APB peripherals, a dummy read to the peripheral register has been
  51:Platform/STM32F4xx/drivers/STM32F4xx_HAL_Driver/Src/stm32f4xx_hal_rcc.c ****           inserted in each __HAL_RCC_PPP_CLK_ENABLE() macro.
  52:Platform/STM32F4xx/drivers/STM32F4xx_HAL_Driver/Src/stm32f4xx_hal_rcc.c **** 
  53:Platform/STM32F4xx/drivers/STM32F4xx_HAL_Driver/Src/stm32f4xx_hal_rcc.c ****   @endverbatim
  54:Platform/STM32F4xx/drivers/STM32F4xx_HAL_Driver/Src/stm32f4xx_hal_rcc.c ****   ******************************************************************************
  55:Platform/STM32F4xx/drivers/STM32F4xx_HAL_Driver/Src/stm32f4xx_hal_rcc.c ****   * @attention
  56:Platform/STM32F4xx/drivers/STM32F4xx_HAL_Driver/Src/stm32f4xx_hal_rcc.c ****   *
  57:Platform/STM32F4xx/drivers/STM32F4xx_HAL_Driver/Src/stm32f4xx_hal_rcc.c ****   * <h2><center>&copy; COPYRIGHT(c) 2017 STMicroelectronics</center></h2>
  58:Platform/STM32F4xx/drivers/STM32F4xx_HAL_Driver/Src/stm32f4xx_hal_rcc.c ****   *
  59:Platform/STM32F4xx/drivers/STM32F4xx_HAL_Driver/Src/stm32f4xx_hal_rcc.c ****   * Redistribution and use in source and binary forms, with or without modification,
  60:Platform/STM32F4xx/drivers/STM32F4xx_HAL_Driver/Src/stm32f4xx_hal_rcc.c ****   * are permitted provided that the following conditions are met:
  61:Platform/STM32F4xx/drivers/STM32F4xx_HAL_Driver/Src/stm32f4xx_hal_rcc.c ****   *   1. Redistributions of source code must retain the above copyright notice,
  62:Platform/STM32F4xx/drivers/STM32F4xx_HAL_Driver/Src/stm32f4xx_hal_rcc.c ****   *      this list of conditions and the following disclaimer.
  63:Platform/STM32F4xx/drivers/STM32F4xx_HAL_Driver/Src/stm32f4xx_hal_rcc.c ****   *   2. Redistributions in binary form must reproduce the above copyright notice,
  64:Platform/STM32F4xx/drivers/STM32F4xx_HAL_Driver/Src/stm32f4xx_hal_rcc.c ****   *      this list of conditions and the following disclaimer in the documentation
  65:Platform/STM32F4xx/drivers/STM32F4xx_HAL_Driver/Src/stm32f4xx_hal_rcc.c ****   *      and/or other materials provided with the distribution.
  66:Platform/STM32F4xx/drivers/STM32F4xx_HAL_Driver/Src/stm32f4xx_hal_rcc.c ****   *   3. Neither the name of STMicroelectronics nor the names of its contributors
  67:Platform/STM32F4xx/drivers/STM32F4xx_HAL_Driver/Src/stm32f4xx_hal_rcc.c ****   *      may be used to endorse or promote products derived from this software
  68:Platform/STM32F4xx/drivers/STM32F4xx_HAL_Driver/Src/stm32f4xx_hal_rcc.c ****   *      without specific prior written permission.
  69:Platform/STM32F4xx/drivers/STM32F4xx_HAL_Driver/Src/stm32f4xx_hal_rcc.c ****   *
  70:Platform/STM32F4xx/drivers/STM32F4xx_HAL_Driver/Src/stm32f4xx_hal_rcc.c ****   * THIS SOFTWARE IS PROVIDED BY THE COPYRIGHT HOLDERS AND CONTRIBUTORS "AS IS"
  71:Platform/STM32F4xx/drivers/STM32F4xx_HAL_Driver/Src/stm32f4xx_hal_rcc.c ****   * AND ANY EXPRESS OR IMPLIED WARRANTIES, INCLUDING, BUT NOT LIMITED TO, THE
  72:Platform/STM32F4xx/drivers/STM32F4xx_HAL_Driver/Src/stm32f4xx_hal_rcc.c ****   * IMPLIED WARRANTIES OF MERCHANTABILITY AND FITNESS FOR A PARTICULAR PURPOSE ARE
  73:Platform/STM32F4xx/drivers/STM32F4xx_HAL_Driver/Src/stm32f4xx_hal_rcc.c ****   * DISCLAIMED. IN NO EVENT SHALL THE COPYRIGHT HOLDER OR CONTRIBUTORS BE LIABLE
  74:Platform/STM32F4xx/drivers/STM32F4xx_HAL_Driver/Src/stm32f4xx_hal_rcc.c ****   * FOR ANY DIRECT, INDIRECT, INCIDENTAL, SPECIAL, EXEMPLARY, OR CONSEQUENTIAL
  75:Platform/STM32F4xx/drivers/STM32F4xx_HAL_Driver/Src/stm32f4xx_hal_rcc.c ****   * DAMAGES (INCLUDING, BUT NOT LIMITED TO, PROCUREMENT OF SUBSTITUTE GOODS OR
  76:Platform/STM32F4xx/drivers/STM32F4xx_HAL_Driver/Src/stm32f4xx_hal_rcc.c ****   * SERVICES; LOSS OF USE, DATA, OR PROFITS; OR BUSINESS INTERRUPTION) HOWEVER
  77:Platform/STM32F4xx/drivers/STM32F4xx_HAL_Driver/Src/stm32f4xx_hal_rcc.c ****   * CAUSED AND ON ANY THEORY OF LIABILITY, WHETHER IN CONTRACT, STRICT LIABILITY,
  78:Platform/STM32F4xx/drivers/STM32F4xx_HAL_Driver/Src/stm32f4xx_hal_rcc.c ****   * OR TORT (INCLUDING NEGLIGENCE OR OTHERWISE) ARISING IN ANY WAY OUT OF THE USE
  79:Platform/STM32F4xx/drivers/STM32F4xx_HAL_Driver/Src/stm32f4xx_hal_rcc.c ****   * OF THIS SOFTWARE, EVEN IF ADVISED OF THE POSSIBILITY OF SUCH DAMAGE.
  80:Platform/STM32F4xx/drivers/STM32F4xx_HAL_Driver/Src/stm32f4xx_hal_rcc.c ****   *
  81:Platform/STM32F4xx/drivers/STM32F4xx_HAL_Driver/Src/stm32f4xx_hal_rcc.c ****   ******************************************************************************
  82:Platform/STM32F4xx/drivers/STM32F4xx_HAL_Driver/Src/stm32f4xx_hal_rcc.c ****   */
  83:Platform/STM32F4xx/drivers/STM32F4xx_HAL_Driver/Src/stm32f4xx_hal_rcc.c **** 
  84:Platform/STM32F4xx/drivers/STM32F4xx_HAL_Driver/Src/stm32f4xx_hal_rcc.c **** /* Includes ------------------------------------------------------------------*/
  85:Platform/STM32F4xx/drivers/STM32F4xx_HAL_Driver/Src/stm32f4xx_hal_rcc.c **** #include "stm32f4xx_hal.h"
  86:Platform/STM32F4xx/drivers/STM32F4xx_HAL_Driver/Src/stm32f4xx_hal_rcc.c **** 
  87:Platform/STM32F4xx/drivers/STM32F4xx_HAL_Driver/Src/stm32f4xx_hal_rcc.c **** /** @addtogroup STM32F4xx_HAL_Driver
  88:Platform/STM32F4xx/drivers/STM32F4xx_HAL_Driver/Src/stm32f4xx_hal_rcc.c ****   * @{
ARM GAS  /tmp/ccSv8R8q.s 			page 3


  89:Platform/STM32F4xx/drivers/STM32F4xx_HAL_Driver/Src/stm32f4xx_hal_rcc.c ****   */
  90:Platform/STM32F4xx/drivers/STM32F4xx_HAL_Driver/Src/stm32f4xx_hal_rcc.c **** 
  91:Platform/STM32F4xx/drivers/STM32F4xx_HAL_Driver/Src/stm32f4xx_hal_rcc.c **** /** @defgroup RCC RCC
  92:Platform/STM32F4xx/drivers/STM32F4xx_HAL_Driver/Src/stm32f4xx_hal_rcc.c ****   * @brief RCC HAL module driver
  93:Platform/STM32F4xx/drivers/STM32F4xx_HAL_Driver/Src/stm32f4xx_hal_rcc.c ****   * @{
  94:Platform/STM32F4xx/drivers/STM32F4xx_HAL_Driver/Src/stm32f4xx_hal_rcc.c ****   */
  95:Platform/STM32F4xx/drivers/STM32F4xx_HAL_Driver/Src/stm32f4xx_hal_rcc.c **** 
  96:Platform/STM32F4xx/drivers/STM32F4xx_HAL_Driver/Src/stm32f4xx_hal_rcc.c **** #ifdef HAL_RCC_MODULE_ENABLED
  97:Platform/STM32F4xx/drivers/STM32F4xx_HAL_Driver/Src/stm32f4xx_hal_rcc.c **** 
  98:Platform/STM32F4xx/drivers/STM32F4xx_HAL_Driver/Src/stm32f4xx_hal_rcc.c **** /* Private typedef -----------------------------------------------------------*/
  99:Platform/STM32F4xx/drivers/STM32F4xx_HAL_Driver/Src/stm32f4xx_hal_rcc.c **** /* Private define ------------------------------------------------------------*/
 100:Platform/STM32F4xx/drivers/STM32F4xx_HAL_Driver/Src/stm32f4xx_hal_rcc.c **** /** @addtogroup RCC_Private_Constants
 101:Platform/STM32F4xx/drivers/STM32F4xx_HAL_Driver/Src/stm32f4xx_hal_rcc.c ****   * @{
 102:Platform/STM32F4xx/drivers/STM32F4xx_HAL_Driver/Src/stm32f4xx_hal_rcc.c ****   */
 103:Platform/STM32F4xx/drivers/STM32F4xx_HAL_Driver/Src/stm32f4xx_hal_rcc.c **** 
 104:Platform/STM32F4xx/drivers/STM32F4xx_HAL_Driver/Src/stm32f4xx_hal_rcc.c **** /* Private macro -------------------------------------------------------------*/
 105:Platform/STM32F4xx/drivers/STM32F4xx_HAL_Driver/Src/stm32f4xx_hal_rcc.c **** #define __MCO1_CLK_ENABLE()   __HAL_RCC_GPIOA_CLK_ENABLE()
 106:Platform/STM32F4xx/drivers/STM32F4xx_HAL_Driver/Src/stm32f4xx_hal_rcc.c **** #define MCO1_GPIO_PORT        GPIOA
 107:Platform/STM32F4xx/drivers/STM32F4xx_HAL_Driver/Src/stm32f4xx_hal_rcc.c **** #define MCO1_PIN              GPIO_PIN_8
 108:Platform/STM32F4xx/drivers/STM32F4xx_HAL_Driver/Src/stm32f4xx_hal_rcc.c **** 
 109:Platform/STM32F4xx/drivers/STM32F4xx_HAL_Driver/Src/stm32f4xx_hal_rcc.c **** #define __MCO2_CLK_ENABLE()   __HAL_RCC_GPIOC_CLK_ENABLE()
 110:Platform/STM32F4xx/drivers/STM32F4xx_HAL_Driver/Src/stm32f4xx_hal_rcc.c **** #define MCO2_GPIO_PORT         GPIOC
 111:Platform/STM32F4xx/drivers/STM32F4xx_HAL_Driver/Src/stm32f4xx_hal_rcc.c **** #define MCO2_PIN               GPIO_PIN_9
 112:Platform/STM32F4xx/drivers/STM32F4xx_HAL_Driver/Src/stm32f4xx_hal_rcc.c **** /**
 113:Platform/STM32F4xx/drivers/STM32F4xx_HAL_Driver/Src/stm32f4xx_hal_rcc.c ****   * @}
 114:Platform/STM32F4xx/drivers/STM32F4xx_HAL_Driver/Src/stm32f4xx_hal_rcc.c ****   */
 115:Platform/STM32F4xx/drivers/STM32F4xx_HAL_Driver/Src/stm32f4xx_hal_rcc.c **** 
 116:Platform/STM32F4xx/drivers/STM32F4xx_HAL_Driver/Src/stm32f4xx_hal_rcc.c **** /* Private variables ---------------------------------------------------------*/
 117:Platform/STM32F4xx/drivers/STM32F4xx_HAL_Driver/Src/stm32f4xx_hal_rcc.c **** /** @defgroup RCC_Private_Variables RCC Private Variables
 118:Platform/STM32F4xx/drivers/STM32F4xx_HAL_Driver/Src/stm32f4xx_hal_rcc.c ****   * @{
 119:Platform/STM32F4xx/drivers/STM32F4xx_HAL_Driver/Src/stm32f4xx_hal_rcc.c ****   */
 120:Platform/STM32F4xx/drivers/STM32F4xx_HAL_Driver/Src/stm32f4xx_hal_rcc.c **** /**
 121:Platform/STM32F4xx/drivers/STM32F4xx_HAL_Driver/Src/stm32f4xx_hal_rcc.c ****   * @}
 122:Platform/STM32F4xx/drivers/STM32F4xx_HAL_Driver/Src/stm32f4xx_hal_rcc.c ****   */
 123:Platform/STM32F4xx/drivers/STM32F4xx_HAL_Driver/Src/stm32f4xx_hal_rcc.c **** /* Private function prototypes -----------------------------------------------*/
 124:Platform/STM32F4xx/drivers/STM32F4xx_HAL_Driver/Src/stm32f4xx_hal_rcc.c **** /* Private functions ---------------------------------------------------------*/
 125:Platform/STM32F4xx/drivers/STM32F4xx_HAL_Driver/Src/stm32f4xx_hal_rcc.c **** 
 126:Platform/STM32F4xx/drivers/STM32F4xx_HAL_Driver/Src/stm32f4xx_hal_rcc.c **** /** @defgroup RCC_Exported_Functions RCC Exported Functions
 127:Platform/STM32F4xx/drivers/STM32F4xx_HAL_Driver/Src/stm32f4xx_hal_rcc.c ****   *  @{
 128:Platform/STM32F4xx/drivers/STM32F4xx_HAL_Driver/Src/stm32f4xx_hal_rcc.c ****   */
 129:Platform/STM32F4xx/drivers/STM32F4xx_HAL_Driver/Src/stm32f4xx_hal_rcc.c **** 
 130:Platform/STM32F4xx/drivers/STM32F4xx_HAL_Driver/Src/stm32f4xx_hal_rcc.c **** /** @defgroup RCC_Exported_Functions_Group1 Initialization and de-initialization functions
 131:Platform/STM32F4xx/drivers/STM32F4xx_HAL_Driver/Src/stm32f4xx_hal_rcc.c ****  *  @brief    Initialization and Configuration functions
 132:Platform/STM32F4xx/drivers/STM32F4xx_HAL_Driver/Src/stm32f4xx_hal_rcc.c ****  *
 133:Platform/STM32F4xx/drivers/STM32F4xx_HAL_Driver/Src/stm32f4xx_hal_rcc.c **** @verbatim
 134:Platform/STM32F4xx/drivers/STM32F4xx_HAL_Driver/Src/stm32f4xx_hal_rcc.c ****  ===============================================================================
 135:Platform/STM32F4xx/drivers/STM32F4xx_HAL_Driver/Src/stm32f4xx_hal_rcc.c ****            ##### Initialization and de-initialization functions #####
 136:Platform/STM32F4xx/drivers/STM32F4xx_HAL_Driver/Src/stm32f4xx_hal_rcc.c ****  ===============================================================================
 137:Platform/STM32F4xx/drivers/STM32F4xx_HAL_Driver/Src/stm32f4xx_hal_rcc.c ****     [..]
 138:Platform/STM32F4xx/drivers/STM32F4xx_HAL_Driver/Src/stm32f4xx_hal_rcc.c ****       This section provides functions allowing to configure the internal/external oscillators
 139:Platform/STM32F4xx/drivers/STM32F4xx_HAL_Driver/Src/stm32f4xx_hal_rcc.c ****       (HSE, HSI, LSE, LSI, PLL, CSS and MCO) and the System busses clocks (SYSCLK, AHB, APB1
 140:Platform/STM32F4xx/drivers/STM32F4xx_HAL_Driver/Src/stm32f4xx_hal_rcc.c ****        and APB2).
 141:Platform/STM32F4xx/drivers/STM32F4xx_HAL_Driver/Src/stm32f4xx_hal_rcc.c **** 
 142:Platform/STM32F4xx/drivers/STM32F4xx_HAL_Driver/Src/stm32f4xx_hal_rcc.c ****     [..] Internal/external clock and PLL configuration
 143:Platform/STM32F4xx/drivers/STM32F4xx_HAL_Driver/Src/stm32f4xx_hal_rcc.c ****          (#) HSI (high-speed internal), 16 MHz factory-trimmed RC used directly or through
 144:Platform/STM32F4xx/drivers/STM32F4xx_HAL_Driver/Src/stm32f4xx_hal_rcc.c ****              the PLL as System clock source.
 145:Platform/STM32F4xx/drivers/STM32F4xx_HAL_Driver/Src/stm32f4xx_hal_rcc.c **** 
ARM GAS  /tmp/ccSv8R8q.s 			page 4


 146:Platform/STM32F4xx/drivers/STM32F4xx_HAL_Driver/Src/stm32f4xx_hal_rcc.c ****          (#) LSI (low-speed internal), 32 KHz low consumption RC used as IWDG and/or RTC
 147:Platform/STM32F4xx/drivers/STM32F4xx_HAL_Driver/Src/stm32f4xx_hal_rcc.c ****              clock source.
 148:Platform/STM32F4xx/drivers/STM32F4xx_HAL_Driver/Src/stm32f4xx_hal_rcc.c **** 
 149:Platform/STM32F4xx/drivers/STM32F4xx_HAL_Driver/Src/stm32f4xx_hal_rcc.c ****          (#) HSE (high-speed external), 4 to 26 MHz crystal oscillator used directly or
 150:Platform/STM32F4xx/drivers/STM32F4xx_HAL_Driver/Src/stm32f4xx_hal_rcc.c ****              through the PLL as System clock source. Can be used also as RTC clock source.
 151:Platform/STM32F4xx/drivers/STM32F4xx_HAL_Driver/Src/stm32f4xx_hal_rcc.c **** 
 152:Platform/STM32F4xx/drivers/STM32F4xx_HAL_Driver/Src/stm32f4xx_hal_rcc.c ****          (#) LSE (low-speed external), 32 KHz oscillator used as RTC clock source.
 153:Platform/STM32F4xx/drivers/STM32F4xx_HAL_Driver/Src/stm32f4xx_hal_rcc.c **** 
 154:Platform/STM32F4xx/drivers/STM32F4xx_HAL_Driver/Src/stm32f4xx_hal_rcc.c ****          (#) PLL (clocked by HSI or HSE), featuring two different output clocks:
 155:Platform/STM32F4xx/drivers/STM32F4xx_HAL_Driver/Src/stm32f4xx_hal_rcc.c ****            (++) The first output is used to generate the high speed system clock (up to 168 MHz)
 156:Platform/STM32F4xx/drivers/STM32F4xx_HAL_Driver/Src/stm32f4xx_hal_rcc.c ****            (++) The second output is used to generate the clock for the USB OTG FS (48 MHz),
 157:Platform/STM32F4xx/drivers/STM32F4xx_HAL_Driver/Src/stm32f4xx_hal_rcc.c ****                 the random analog generator (<=48 MHz) and the SDIO (<= 48 MHz).
 158:Platform/STM32F4xx/drivers/STM32F4xx_HAL_Driver/Src/stm32f4xx_hal_rcc.c **** 
 159:Platform/STM32F4xx/drivers/STM32F4xx_HAL_Driver/Src/stm32f4xx_hal_rcc.c ****          (#) CSS (Clock security system), once enable using the macro __HAL_RCC_CSS_ENABLE()
 160:Platform/STM32F4xx/drivers/STM32F4xx_HAL_Driver/Src/stm32f4xx_hal_rcc.c ****              and if a HSE clock failure occurs(HSE used directly or through PLL as System
 161:Platform/STM32F4xx/drivers/STM32F4xx_HAL_Driver/Src/stm32f4xx_hal_rcc.c ****              clock source), the System clocks automatically switched to HSI and an interrupt
 162:Platform/STM32F4xx/drivers/STM32F4xx_HAL_Driver/Src/stm32f4xx_hal_rcc.c ****              is generated if enabled. The interrupt is linked to the Cortex-M4 NMI
 163:Platform/STM32F4xx/drivers/STM32F4xx_HAL_Driver/Src/stm32f4xx_hal_rcc.c ****              (Non-Maskable Interrupt) exception vector.
 164:Platform/STM32F4xx/drivers/STM32F4xx_HAL_Driver/Src/stm32f4xx_hal_rcc.c **** 
 165:Platform/STM32F4xx/drivers/STM32F4xx_HAL_Driver/Src/stm32f4xx_hal_rcc.c ****          (#) MCO1 (microcontroller clock output), used to output HSI, LSE, HSE or PLL
 166:Platform/STM32F4xx/drivers/STM32F4xx_HAL_Driver/Src/stm32f4xx_hal_rcc.c ****              clock (through a configurable prescaler) on PA8 pin.
 167:Platform/STM32F4xx/drivers/STM32F4xx_HAL_Driver/Src/stm32f4xx_hal_rcc.c **** 
 168:Platform/STM32F4xx/drivers/STM32F4xx_HAL_Driver/Src/stm32f4xx_hal_rcc.c ****          (#) MCO2 (microcontroller clock output), used to output HSE, PLL, SYSCLK or PLLI2S
 169:Platform/STM32F4xx/drivers/STM32F4xx_HAL_Driver/Src/stm32f4xx_hal_rcc.c ****              clock (through a configurable prescaler) on PC9 pin.
 170:Platform/STM32F4xx/drivers/STM32F4xx_HAL_Driver/Src/stm32f4xx_hal_rcc.c **** 
 171:Platform/STM32F4xx/drivers/STM32F4xx_HAL_Driver/Src/stm32f4xx_hal_rcc.c ****     [..] System, AHB and APB busses clocks configuration
 172:Platform/STM32F4xx/drivers/STM32F4xx_HAL_Driver/Src/stm32f4xx_hal_rcc.c ****          (#) Several clock sources can be used to drive the System clock (SYSCLK): HSI,
 173:Platform/STM32F4xx/drivers/STM32F4xx_HAL_Driver/Src/stm32f4xx_hal_rcc.c ****              HSE and PLL.
 174:Platform/STM32F4xx/drivers/STM32F4xx_HAL_Driver/Src/stm32f4xx_hal_rcc.c ****              The AHB clock (HCLK) is derived from System clock through configurable
 175:Platform/STM32F4xx/drivers/STM32F4xx_HAL_Driver/Src/stm32f4xx_hal_rcc.c ****              prescaler and used to clock the CPU, memory and peripherals mapped
 176:Platform/STM32F4xx/drivers/STM32F4xx_HAL_Driver/Src/stm32f4xx_hal_rcc.c ****              on AHB bus (DMA, GPIO...). APB1 (PCLK1) and APB2 (PCLK2) clocks are derived
 177:Platform/STM32F4xx/drivers/STM32F4xx_HAL_Driver/Src/stm32f4xx_hal_rcc.c ****              from AHB clock through configurable prescalers and used to clock
 178:Platform/STM32F4xx/drivers/STM32F4xx_HAL_Driver/Src/stm32f4xx_hal_rcc.c ****              the peripherals mapped on these busses. You can use
 179:Platform/STM32F4xx/drivers/STM32F4xx_HAL_Driver/Src/stm32f4xx_hal_rcc.c ****              "HAL_RCC_GetSysClockFreq()" function to retrieve the frequencies of these clocks.
 180:Platform/STM32F4xx/drivers/STM32F4xx_HAL_Driver/Src/stm32f4xx_hal_rcc.c **** 
 181:Platform/STM32F4xx/drivers/STM32F4xx_HAL_Driver/Src/stm32f4xx_hal_rcc.c ****          (#) For the STM32F405xx/07xx and STM32F415xx/17xx devices, the maximum
 182:Platform/STM32F4xx/drivers/STM32F4xx_HAL_Driver/Src/stm32f4xx_hal_rcc.c ****              frequency of the SYSCLK and HCLK is 168 MHz, PCLK2 84 MHz and PCLK1 42 MHz.
 183:Platform/STM32F4xx/drivers/STM32F4xx_HAL_Driver/Src/stm32f4xx_hal_rcc.c ****              Depending on the device voltage range, the maximum frequency should
 184:Platform/STM32F4xx/drivers/STM32F4xx_HAL_Driver/Src/stm32f4xx_hal_rcc.c ****              be adapted accordingly (refer to the product datasheets for more details).
 185:Platform/STM32F4xx/drivers/STM32F4xx_HAL_Driver/Src/stm32f4xx_hal_rcc.c **** 
 186:Platform/STM32F4xx/drivers/STM32F4xx_HAL_Driver/Src/stm32f4xx_hal_rcc.c ****          (#) For the STM32F42xxx, STM32F43xxx, STM32F446xx, STM32F469xx and STM32F479xx devices,
 187:Platform/STM32F4xx/drivers/STM32F4xx_HAL_Driver/Src/stm32f4xx_hal_rcc.c ****              the maximum frequency of the SYSCLK and HCLK is 180 MHz, PCLK2 90 MHz and PCLK1 45 MHz
 188:Platform/STM32F4xx/drivers/STM32F4xx_HAL_Driver/Src/stm32f4xx_hal_rcc.c ****              Depending on the device voltage range, the maximum frequency should
 189:Platform/STM32F4xx/drivers/STM32F4xx_HAL_Driver/Src/stm32f4xx_hal_rcc.c ****              be adapted accordingly (refer to the product datasheets for more details).
 190:Platform/STM32F4xx/drivers/STM32F4xx_HAL_Driver/Src/stm32f4xx_hal_rcc.c **** 
 191:Platform/STM32F4xx/drivers/STM32F4xx_HAL_Driver/Src/stm32f4xx_hal_rcc.c ****          (#) For the STM32F401xx, the maximum frequency of the SYSCLK and HCLK is 84 MHz,
 192:Platform/STM32F4xx/drivers/STM32F4xx_HAL_Driver/Src/stm32f4xx_hal_rcc.c ****              PCLK2 84 MHz and PCLK1 42 MHz.
 193:Platform/STM32F4xx/drivers/STM32F4xx_HAL_Driver/Src/stm32f4xx_hal_rcc.c ****              Depending on the device voltage range, the maximum frequency should
 194:Platform/STM32F4xx/drivers/STM32F4xx_HAL_Driver/Src/stm32f4xx_hal_rcc.c ****              be adapted accordingly (refer to the product datasheets for more details).
 195:Platform/STM32F4xx/drivers/STM32F4xx_HAL_Driver/Src/stm32f4xx_hal_rcc.c **** 
 196:Platform/STM32F4xx/drivers/STM32F4xx_HAL_Driver/Src/stm32f4xx_hal_rcc.c ****          (#) For the STM32F41xxx, the maximum frequency of the SYSCLK and HCLK is 100 MHz,
 197:Platform/STM32F4xx/drivers/STM32F4xx_HAL_Driver/Src/stm32f4xx_hal_rcc.c ****              PCLK2 100 MHz and PCLK1 50 MHz.
 198:Platform/STM32F4xx/drivers/STM32F4xx_HAL_Driver/Src/stm32f4xx_hal_rcc.c ****              Depending on the device voltage range, the maximum frequency should
 199:Platform/STM32F4xx/drivers/STM32F4xx_HAL_Driver/Src/stm32f4xx_hal_rcc.c ****              be adapted accordingly (refer to the product datasheets for more details).
 200:Platform/STM32F4xx/drivers/STM32F4xx_HAL_Driver/Src/stm32f4xx_hal_rcc.c **** 
 201:Platform/STM32F4xx/drivers/STM32F4xx_HAL_Driver/Src/stm32f4xx_hal_rcc.c **** @endverbatim
 202:Platform/STM32F4xx/drivers/STM32F4xx_HAL_Driver/Src/stm32f4xx_hal_rcc.c ****   * @{
ARM GAS  /tmp/ccSv8R8q.s 			page 5


 203:Platform/STM32F4xx/drivers/STM32F4xx_HAL_Driver/Src/stm32f4xx_hal_rcc.c ****   */
 204:Platform/STM32F4xx/drivers/STM32F4xx_HAL_Driver/Src/stm32f4xx_hal_rcc.c **** 
 205:Platform/STM32F4xx/drivers/STM32F4xx_HAL_Driver/Src/stm32f4xx_hal_rcc.c **** /**
 206:Platform/STM32F4xx/drivers/STM32F4xx_HAL_Driver/Src/stm32f4xx_hal_rcc.c ****   * @brief  Resets the RCC clock configuration to the default reset state.
 207:Platform/STM32F4xx/drivers/STM32F4xx_HAL_Driver/Src/stm32f4xx_hal_rcc.c ****   * @note   The default reset state of the clock configuration is given below:
 208:Platform/STM32F4xx/drivers/STM32F4xx_HAL_Driver/Src/stm32f4xx_hal_rcc.c ****   *            - HSI ON and used as system clock source
 209:Platform/STM32F4xx/drivers/STM32F4xx_HAL_Driver/Src/stm32f4xx_hal_rcc.c ****   *            - HSE and PLL OFF
 210:Platform/STM32F4xx/drivers/STM32F4xx_HAL_Driver/Src/stm32f4xx_hal_rcc.c ****   *            - AHB, APB1 and APB2 prescaler set to 1.
 211:Platform/STM32F4xx/drivers/STM32F4xx_HAL_Driver/Src/stm32f4xx_hal_rcc.c ****   *            - CSS, MCO1 and MCO2 OFF
 212:Platform/STM32F4xx/drivers/STM32F4xx_HAL_Driver/Src/stm32f4xx_hal_rcc.c ****   *            - All interrupts disabled
 213:Platform/STM32F4xx/drivers/STM32F4xx_HAL_Driver/Src/stm32f4xx_hal_rcc.c ****   * @note   This function doesn't modify the configuration of the
 214:Platform/STM32F4xx/drivers/STM32F4xx_HAL_Driver/Src/stm32f4xx_hal_rcc.c ****   *            - Peripheral clocks
 215:Platform/STM32F4xx/drivers/STM32F4xx_HAL_Driver/Src/stm32f4xx_hal_rcc.c ****   *            - LSI, LSE and RTC clocks
 216:Platform/STM32F4xx/drivers/STM32F4xx_HAL_Driver/Src/stm32f4xx_hal_rcc.c ****   * @retval HAL status
 217:Platform/STM32F4xx/drivers/STM32F4xx_HAL_Driver/Src/stm32f4xx_hal_rcc.c ****   */
 218:Platform/STM32F4xx/drivers/STM32F4xx_HAL_Driver/Src/stm32f4xx_hal_rcc.c **** __weak HAL_StatusTypeDef HAL_RCC_DeInit(void)
 219:Platform/STM32F4xx/drivers/STM32F4xx_HAL_Driver/Src/stm32f4xx_hal_rcc.c **** {
  28              		.loc 1 219 0
  29              		.cfi_startproc
  30              		@ args = 0, pretend = 0, frame = 0
  31              		@ frame_needed = 0, uses_anonymous_args = 0
  32              		@ link register save eliminated.
 220:Platform/STM32F4xx/drivers/STM32F4xx_HAL_Driver/Src/stm32f4xx_hal_rcc.c ****   return HAL_OK;
 221:Platform/STM32F4xx/drivers/STM32F4xx_HAL_Driver/Src/stm32f4xx_hal_rcc.c **** }
  33              		.loc 1 221 0
  34 0000 0020     		movs	r0, #0
  35 0002 7047     		bx	lr
  36              		.cfi_endproc
  37              	.LFE126:
  39              		.section	.text.HAL_RCC_OscConfig,"ax",%progbits
  40              		.align	1
  41              		.weak	HAL_RCC_OscConfig
  42              		.syntax unified
  43              		.thumb
  44              		.thumb_func
  45              		.fpu fpv4-sp-d16
  47              	HAL_RCC_OscConfig:
  48              	.LFB127:
 222:Platform/STM32F4xx/drivers/STM32F4xx_HAL_Driver/Src/stm32f4xx_hal_rcc.c **** 
 223:Platform/STM32F4xx/drivers/STM32F4xx_HAL_Driver/Src/stm32f4xx_hal_rcc.c **** /**
 224:Platform/STM32F4xx/drivers/STM32F4xx_HAL_Driver/Src/stm32f4xx_hal_rcc.c ****   * @brief  Initializes the RCC Oscillators according to the specified parameters in the
 225:Platform/STM32F4xx/drivers/STM32F4xx_HAL_Driver/Src/stm32f4xx_hal_rcc.c ****   *         RCC_OscInitTypeDef.
 226:Platform/STM32F4xx/drivers/STM32F4xx_HAL_Driver/Src/stm32f4xx_hal_rcc.c ****   * @param  RCC_OscInitStruct pointer to an RCC_OscInitTypeDef structure that
 227:Platform/STM32F4xx/drivers/STM32F4xx_HAL_Driver/Src/stm32f4xx_hal_rcc.c ****   *         contains the configuration information for the RCC Oscillators.
 228:Platform/STM32F4xx/drivers/STM32F4xx_HAL_Driver/Src/stm32f4xx_hal_rcc.c ****   * @note   The PLL is not disabled when used as system clock.
 229:Platform/STM32F4xx/drivers/STM32F4xx_HAL_Driver/Src/stm32f4xx_hal_rcc.c ****   * @note   Transitions LSE Bypass to LSE On and LSE On to LSE Bypass are not
 230:Platform/STM32F4xx/drivers/STM32F4xx_HAL_Driver/Src/stm32f4xx_hal_rcc.c ****   *         supported by this API. User should request a transition to LSE Off
 231:Platform/STM32F4xx/drivers/STM32F4xx_HAL_Driver/Src/stm32f4xx_hal_rcc.c ****   *         first and then LSE On or LSE Bypass.
 232:Platform/STM32F4xx/drivers/STM32F4xx_HAL_Driver/Src/stm32f4xx_hal_rcc.c ****   * @note   Transition HSE Bypass to HSE On and HSE On to HSE Bypass are not
 233:Platform/STM32F4xx/drivers/STM32F4xx_HAL_Driver/Src/stm32f4xx_hal_rcc.c ****   *         supported by this API. User should request a transition to HSE Off
 234:Platform/STM32F4xx/drivers/STM32F4xx_HAL_Driver/Src/stm32f4xx_hal_rcc.c ****   *         first and then HSE On or HSE Bypass.
 235:Platform/STM32F4xx/drivers/STM32F4xx_HAL_Driver/Src/stm32f4xx_hal_rcc.c ****   * @retval HAL status
 236:Platform/STM32F4xx/drivers/STM32F4xx_HAL_Driver/Src/stm32f4xx_hal_rcc.c ****   */
 237:Platform/STM32F4xx/drivers/STM32F4xx_HAL_Driver/Src/stm32f4xx_hal_rcc.c **** __weak HAL_StatusTypeDef HAL_RCC_OscConfig(RCC_OscInitTypeDef  *RCC_OscInitStruct)
 238:Platform/STM32F4xx/drivers/STM32F4xx_HAL_Driver/Src/stm32f4xx_hal_rcc.c **** {
  49              		.loc 1 238 0
  50              		.cfi_startproc
ARM GAS  /tmp/ccSv8R8q.s 			page 6


  51              		@ args = 0, pretend = 0, frame = 8
  52              		@ frame_needed = 0, uses_anonymous_args = 0
  53              	.LVL0:
 239:Platform/STM32F4xx/drivers/STM32F4xx_HAL_Driver/Src/stm32f4xx_hal_rcc.c ****   uint32_t tickstart;
 240:Platform/STM32F4xx/drivers/STM32F4xx_HAL_Driver/Src/stm32f4xx_hal_rcc.c **** 
 241:Platform/STM32F4xx/drivers/STM32F4xx_HAL_Driver/Src/stm32f4xx_hal_rcc.c ****   /* Check Null pointer */
 242:Platform/STM32F4xx/drivers/STM32F4xx_HAL_Driver/Src/stm32f4xx_hal_rcc.c ****   if(RCC_OscInitStruct == NULL)
  54              		.loc 1 242 0
  55 0000 0028     		cmp	r0, #0
  56 0002 00F0BB81 		beq	.L51
 238:Platform/STM32F4xx/drivers/STM32F4xx_HAL_Driver/Src/stm32f4xx_hal_rcc.c ****   uint32_t tickstart;
  57              		.loc 1 238 0
  58 0006 70B5     		push	{r4, r5, r6, lr}
  59              	.LCFI0:
  60              		.cfi_def_cfa_offset 16
  61              		.cfi_offset 4, -16
  62              		.cfi_offset 5, -12
  63              		.cfi_offset 6, -8
  64              		.cfi_offset 14, -4
  65 0008 82B0     		sub	sp, sp, #8
  66              	.LCFI1:
  67              		.cfi_def_cfa_offset 24
  68 000a 0446     		mov	r4, r0
 243:Platform/STM32F4xx/drivers/STM32F4xx_HAL_Driver/Src/stm32f4xx_hal_rcc.c ****   {
 244:Platform/STM32F4xx/drivers/STM32F4xx_HAL_Driver/Src/stm32f4xx_hal_rcc.c ****     return HAL_ERROR;
 245:Platform/STM32F4xx/drivers/STM32F4xx_HAL_Driver/Src/stm32f4xx_hal_rcc.c ****   }
 246:Platform/STM32F4xx/drivers/STM32F4xx_HAL_Driver/Src/stm32f4xx_hal_rcc.c **** 
 247:Platform/STM32F4xx/drivers/STM32F4xx_HAL_Driver/Src/stm32f4xx_hal_rcc.c ****   /* Check the parameters */
 248:Platform/STM32F4xx/drivers/STM32F4xx_HAL_Driver/Src/stm32f4xx_hal_rcc.c ****   assert_param(IS_RCC_OSCILLATORTYPE(RCC_OscInitStruct->OscillatorType));
 249:Platform/STM32F4xx/drivers/STM32F4xx_HAL_Driver/Src/stm32f4xx_hal_rcc.c ****   /*------------------------------- HSE Configuration ------------------------*/
 250:Platform/STM32F4xx/drivers/STM32F4xx_HAL_Driver/Src/stm32f4xx_hal_rcc.c ****   if(((RCC_OscInitStruct->OscillatorType) & RCC_OSCILLATORTYPE_HSE) == RCC_OSCILLATORTYPE_HSE)
  69              		.loc 1 250 0
  70 000c 0368     		ldr	r3, [r0]
  71 000e 13F0010F 		tst	r3, #1
  72 0012 3BD0     		beq	.L4
 251:Platform/STM32F4xx/drivers/STM32F4xx_HAL_Driver/Src/stm32f4xx_hal_rcc.c ****   {
 252:Platform/STM32F4xx/drivers/STM32F4xx_HAL_Driver/Src/stm32f4xx_hal_rcc.c ****     /* Check the parameters */
 253:Platform/STM32F4xx/drivers/STM32F4xx_HAL_Driver/Src/stm32f4xx_hal_rcc.c ****     assert_param(IS_RCC_HSE(RCC_OscInitStruct->HSEState));
 254:Platform/STM32F4xx/drivers/STM32F4xx_HAL_Driver/Src/stm32f4xx_hal_rcc.c ****     /* When the HSE is used as system clock or clock source for PLL in these cases HSE will not dis
 255:Platform/STM32F4xx/drivers/STM32F4xx_HAL_Driver/Src/stm32f4xx_hal_rcc.c ****     if((__HAL_RCC_GET_SYSCLK_SOURCE() == RCC_CFGR_SWS_HSE) ||\
  73              		.loc 1 255 0
  74 0014 A74B     		ldr	r3, .L87
  75 0016 9B68     		ldr	r3, [r3, #8]
  76 0018 03F00C03 		and	r3, r3, #12
  77 001c 042B     		cmp	r3, #4
  78 001e 2CD0     		beq	.L5
 256:Platform/STM32F4xx/drivers/STM32F4xx_HAL_Driver/Src/stm32f4xx_hal_rcc.c ****       ((__HAL_RCC_GET_SYSCLK_SOURCE() == RCC_CFGR_SWS_PLL) && ((RCC->PLLCFGR & RCC_PLLCFGR_PLLSRC) 
  79              		.loc 1 256 0 discriminator 1
  80 0020 A44B     		ldr	r3, .L87
  81 0022 9B68     		ldr	r3, [r3, #8]
  82 0024 03F00C03 		and	r3, r3, #12
 255:Platform/STM32F4xx/drivers/STM32F4xx_HAL_Driver/Src/stm32f4xx_hal_rcc.c ****       ((__HAL_RCC_GET_SYSCLK_SOURCE() == RCC_CFGR_SWS_PLL) && ((RCC->PLLCFGR & RCC_PLLCFGR_PLLSRC) 
  83              		.loc 1 255 0 discriminator 1
  84 0028 082B     		cmp	r3, #8
  85 002a 21D0     		beq	.L73
  86              	.L6:
 257:Platform/STM32F4xx/drivers/STM32F4xx_HAL_Driver/Src/stm32f4xx_hal_rcc.c ****     {
ARM GAS  /tmp/ccSv8R8q.s 			page 7


 258:Platform/STM32F4xx/drivers/STM32F4xx_HAL_Driver/Src/stm32f4xx_hal_rcc.c ****       if((__HAL_RCC_GET_FLAG(RCC_FLAG_HSERDY) != RESET) && (RCC_OscInitStruct->HSEState == RCC_HSE_
 259:Platform/STM32F4xx/drivers/STM32F4xx_HAL_Driver/Src/stm32f4xx_hal_rcc.c ****       {
 260:Platform/STM32F4xx/drivers/STM32F4xx_HAL_Driver/Src/stm32f4xx_hal_rcc.c ****         return HAL_ERROR;
 261:Platform/STM32F4xx/drivers/STM32F4xx_HAL_Driver/Src/stm32f4xx_hal_rcc.c ****       }
 262:Platform/STM32F4xx/drivers/STM32F4xx_HAL_Driver/Src/stm32f4xx_hal_rcc.c ****     }
 263:Platform/STM32F4xx/drivers/STM32F4xx_HAL_Driver/Src/stm32f4xx_hal_rcc.c ****     else
 264:Platform/STM32F4xx/drivers/STM32F4xx_HAL_Driver/Src/stm32f4xx_hal_rcc.c ****     {
 265:Platform/STM32F4xx/drivers/STM32F4xx_HAL_Driver/Src/stm32f4xx_hal_rcc.c ****       /* Set the new HSE configuration ---------------------------------------*/
 266:Platform/STM32F4xx/drivers/STM32F4xx_HAL_Driver/Src/stm32f4xx_hal_rcc.c ****       __HAL_RCC_HSE_CONFIG(RCC_OscInitStruct->HSEState);
  87              		.loc 1 266 0
  88 002c 6368     		ldr	r3, [r4, #4]
  89 002e B3F5803F 		cmp	r3, #65536
  90 0032 4FD0     		beq	.L74
  91              		.loc 1 266 0 is_stmt 0 discriminator 2
  92 0034 B3F5A02F 		cmp	r3, #327680
  93 0038 52D0     		beq	.L75
  94              		.loc 1 266 0 discriminator 4
  95 003a 9E4B     		ldr	r3, .L87
  96 003c 1A68     		ldr	r2, [r3]
  97 003e 22F48032 		bic	r2, r2, #65536
  98 0042 1A60     		str	r2, [r3]
  99 0044 1A68     		ldr	r2, [r3]
 100 0046 22F48022 		bic	r2, r2, #262144
 101 004a 1A60     		str	r2, [r3]
 102              	.L8:
 267:Platform/STM32F4xx/drivers/STM32F4xx_HAL_Driver/Src/stm32f4xx_hal_rcc.c **** 
 268:Platform/STM32F4xx/drivers/STM32F4xx_HAL_Driver/Src/stm32f4xx_hal_rcc.c ****       /* Check the HSE State */
 269:Platform/STM32F4xx/drivers/STM32F4xx_HAL_Driver/Src/stm32f4xx_hal_rcc.c ****       if((RCC_OscInitStruct->HSEState) != RCC_HSE_OFF)
 103              		.loc 1 269 0 is_stmt 1
 104 004c 6368     		ldr	r3, [r4, #4]
 105 004e 002B     		cmp	r3, #0
 106 0050 50D0     		beq	.L10
 270:Platform/STM32F4xx/drivers/STM32F4xx_HAL_Driver/Src/stm32f4xx_hal_rcc.c ****       {
 271:Platform/STM32F4xx/drivers/STM32F4xx_HAL_Driver/Src/stm32f4xx_hal_rcc.c ****         /* Get Start Tick */
 272:Platform/STM32F4xx/drivers/STM32F4xx_HAL_Driver/Src/stm32f4xx_hal_rcc.c ****         tickstart = HAL_GetTick();
 107              		.loc 1 272 0
 108 0052 FFF7FEFF 		bl	HAL_GetTick
 109              	.LVL1:
 110 0056 0546     		mov	r5, r0
 111              	.LVL2:
 112              	.L11:
 273:Platform/STM32F4xx/drivers/STM32F4xx_HAL_Driver/Src/stm32f4xx_hal_rcc.c **** 
 274:Platform/STM32F4xx/drivers/STM32F4xx_HAL_Driver/Src/stm32f4xx_hal_rcc.c ****         /* Wait till HSE is ready */
 275:Platform/STM32F4xx/drivers/STM32F4xx_HAL_Driver/Src/stm32f4xx_hal_rcc.c ****         while(__HAL_RCC_GET_FLAG(RCC_FLAG_HSERDY) == RESET)
 113              		.loc 1 275 0
 114 0058 964B     		ldr	r3, .L87
 115 005a 1B68     		ldr	r3, [r3]
 116 005c 13F4003F 		tst	r3, #131072
 117 0060 14D1     		bne	.L4
 276:Platform/STM32F4xx/drivers/STM32F4xx_HAL_Driver/Src/stm32f4xx_hal_rcc.c ****         {
 277:Platform/STM32F4xx/drivers/STM32F4xx_HAL_Driver/Src/stm32f4xx_hal_rcc.c ****           if((HAL_GetTick() - tickstart ) > HSE_TIMEOUT_VALUE)
 118              		.loc 1 277 0
 119 0062 FFF7FEFF 		bl	HAL_GetTick
 120              	.LVL3:
 121 0066 401B     		subs	r0, r0, r5
 122 0068 6428     		cmp	r0, #100
 123 006a F5D9     		bls	.L11
ARM GAS  /tmp/ccSv8R8q.s 			page 8


 278:Platform/STM32F4xx/drivers/STM32F4xx_HAL_Driver/Src/stm32f4xx_hal_rcc.c ****           {
 279:Platform/STM32F4xx/drivers/STM32F4xx_HAL_Driver/Src/stm32f4xx_hal_rcc.c ****             return HAL_TIMEOUT;
 124              		.loc 1 279 0
 125 006c 0320     		movs	r0, #3
 126 006e 8AE1     		b	.L3
 127              	.LVL4:
 128              	.L73:
 256:Platform/STM32F4xx/drivers/STM32F4xx_HAL_Driver/Src/stm32f4xx_hal_rcc.c ****     {
 129              		.loc 1 256 0
 130 0070 904B     		ldr	r3, .L87
 131 0072 5B68     		ldr	r3, [r3, #4]
 132 0074 13F4800F 		tst	r3, #4194304
 133 0078 D8D0     		beq	.L6
 134              	.L5:
 258:Platform/STM32F4xx/drivers/STM32F4xx_HAL_Driver/Src/stm32f4xx_hal_rcc.c ****       {
 135              		.loc 1 258 0
 136 007a 8E4B     		ldr	r3, .L87
 137 007c 1B68     		ldr	r3, [r3]
 138 007e 13F4003F 		tst	r3, #131072
 139 0082 03D0     		beq	.L4
 258:Platform/STM32F4xx/drivers/STM32F4xx_HAL_Driver/Src/stm32f4xx_hal_rcc.c ****       {
 140              		.loc 1 258 0 is_stmt 0 discriminator 1
 141 0084 6368     		ldr	r3, [r4, #4]
 142 0086 002B     		cmp	r3, #0
 143 0088 00F07A81 		beq	.L76
 144              	.LVL5:
 145              	.L4:
 280:Platform/STM32F4xx/drivers/STM32F4xx_HAL_Driver/Src/stm32f4xx_hal_rcc.c ****           }
 281:Platform/STM32F4xx/drivers/STM32F4xx_HAL_Driver/Src/stm32f4xx_hal_rcc.c ****         }
 282:Platform/STM32F4xx/drivers/STM32F4xx_HAL_Driver/Src/stm32f4xx_hal_rcc.c ****       }
 283:Platform/STM32F4xx/drivers/STM32F4xx_HAL_Driver/Src/stm32f4xx_hal_rcc.c ****       else
 284:Platform/STM32F4xx/drivers/STM32F4xx_HAL_Driver/Src/stm32f4xx_hal_rcc.c ****       {
 285:Platform/STM32F4xx/drivers/STM32F4xx_HAL_Driver/Src/stm32f4xx_hal_rcc.c ****         /* Get Start Tick */
 286:Platform/STM32F4xx/drivers/STM32F4xx_HAL_Driver/Src/stm32f4xx_hal_rcc.c ****         tickstart = HAL_GetTick();
 287:Platform/STM32F4xx/drivers/STM32F4xx_HAL_Driver/Src/stm32f4xx_hal_rcc.c **** 
 288:Platform/STM32F4xx/drivers/STM32F4xx_HAL_Driver/Src/stm32f4xx_hal_rcc.c ****         /* Wait till HSE is bypassed or disabled */
 289:Platform/STM32F4xx/drivers/STM32F4xx_HAL_Driver/Src/stm32f4xx_hal_rcc.c ****         while(__HAL_RCC_GET_FLAG(RCC_FLAG_HSERDY) != RESET)
 290:Platform/STM32F4xx/drivers/STM32F4xx_HAL_Driver/Src/stm32f4xx_hal_rcc.c ****         {
 291:Platform/STM32F4xx/drivers/STM32F4xx_HAL_Driver/Src/stm32f4xx_hal_rcc.c ****           if((HAL_GetTick() - tickstart ) > HSE_TIMEOUT_VALUE)
 292:Platform/STM32F4xx/drivers/STM32F4xx_HAL_Driver/Src/stm32f4xx_hal_rcc.c ****           {
 293:Platform/STM32F4xx/drivers/STM32F4xx_HAL_Driver/Src/stm32f4xx_hal_rcc.c ****             return HAL_TIMEOUT;
 294:Platform/STM32F4xx/drivers/STM32F4xx_HAL_Driver/Src/stm32f4xx_hal_rcc.c ****           }
 295:Platform/STM32F4xx/drivers/STM32F4xx_HAL_Driver/Src/stm32f4xx_hal_rcc.c ****         }
 296:Platform/STM32F4xx/drivers/STM32F4xx_HAL_Driver/Src/stm32f4xx_hal_rcc.c ****       }
 297:Platform/STM32F4xx/drivers/STM32F4xx_HAL_Driver/Src/stm32f4xx_hal_rcc.c ****     }
 298:Platform/STM32F4xx/drivers/STM32F4xx_HAL_Driver/Src/stm32f4xx_hal_rcc.c ****   }
 299:Platform/STM32F4xx/drivers/STM32F4xx_HAL_Driver/Src/stm32f4xx_hal_rcc.c ****   /*----------------------------- HSI Configuration --------------------------*/
 300:Platform/STM32F4xx/drivers/STM32F4xx_HAL_Driver/Src/stm32f4xx_hal_rcc.c ****   if(((RCC_OscInitStruct->OscillatorType) & RCC_OSCILLATORTYPE_HSI) == RCC_OSCILLATORTYPE_HSI)
 146              		.loc 1 300 0 is_stmt 1
 147 008c 2368     		ldr	r3, [r4]
 148 008e 13F0020F 		tst	r3, #2
 149 0092 55D0     		beq	.L15
 301:Platform/STM32F4xx/drivers/STM32F4xx_HAL_Driver/Src/stm32f4xx_hal_rcc.c ****   {
 302:Platform/STM32F4xx/drivers/STM32F4xx_HAL_Driver/Src/stm32f4xx_hal_rcc.c ****     /* Check the parameters */
 303:Platform/STM32F4xx/drivers/STM32F4xx_HAL_Driver/Src/stm32f4xx_hal_rcc.c ****     assert_param(IS_RCC_HSI(RCC_OscInitStruct->HSIState));
 304:Platform/STM32F4xx/drivers/STM32F4xx_HAL_Driver/Src/stm32f4xx_hal_rcc.c ****     assert_param(IS_RCC_CALIBRATION_VALUE(RCC_OscInitStruct->HSICalibrationValue));
 305:Platform/STM32F4xx/drivers/STM32F4xx_HAL_Driver/Src/stm32f4xx_hal_rcc.c **** 
ARM GAS  /tmp/ccSv8R8q.s 			page 9


 306:Platform/STM32F4xx/drivers/STM32F4xx_HAL_Driver/Src/stm32f4xx_hal_rcc.c ****     /* Check if HSI is used as system clock or as PLL source when PLL is selected as system clock *
 307:Platform/STM32F4xx/drivers/STM32F4xx_HAL_Driver/Src/stm32f4xx_hal_rcc.c ****     if((__HAL_RCC_GET_SYSCLK_SOURCE() == RCC_CFGR_SWS_HSI) ||\
 150              		.loc 1 307 0
 151 0094 874B     		ldr	r3, .L87
 152 0096 9B68     		ldr	r3, [r3, #8]
 153 0098 13F00C0F 		tst	r3, #12
 154 009c 3ED0     		beq	.L16
 308:Platform/STM32F4xx/drivers/STM32F4xx_HAL_Driver/Src/stm32f4xx_hal_rcc.c ****       ((__HAL_RCC_GET_SYSCLK_SOURCE() == RCC_CFGR_SWS_PLL) && ((RCC->PLLCFGR & RCC_PLLCFGR_PLLSRC) 
 155              		.loc 1 308 0 discriminator 1
 156 009e 854B     		ldr	r3, .L87
 157 00a0 9B68     		ldr	r3, [r3, #8]
 158 00a2 03F00C03 		and	r3, r3, #12
 307:Platform/STM32F4xx/drivers/STM32F4xx_HAL_Driver/Src/stm32f4xx_hal_rcc.c ****       ((__HAL_RCC_GET_SYSCLK_SOURCE() == RCC_CFGR_SWS_PLL) && ((RCC->PLLCFGR & RCC_PLLCFGR_PLLSRC) 
 159              		.loc 1 307 0 discriminator 1
 160 00a6 082B     		cmp	r3, #8
 161 00a8 33D0     		beq	.L77
 162              	.L17:
 309:Platform/STM32F4xx/drivers/STM32F4xx_HAL_Driver/Src/stm32f4xx_hal_rcc.c ****     {
 310:Platform/STM32F4xx/drivers/STM32F4xx_HAL_Driver/Src/stm32f4xx_hal_rcc.c ****       /* When HSI is used as system clock it will not disabled */
 311:Platform/STM32F4xx/drivers/STM32F4xx_HAL_Driver/Src/stm32f4xx_hal_rcc.c ****       if((__HAL_RCC_GET_FLAG(RCC_FLAG_HSIRDY) != RESET) && (RCC_OscInitStruct->HSIState != RCC_HSI_
 312:Platform/STM32F4xx/drivers/STM32F4xx_HAL_Driver/Src/stm32f4xx_hal_rcc.c ****       {
 313:Platform/STM32F4xx/drivers/STM32F4xx_HAL_Driver/Src/stm32f4xx_hal_rcc.c ****         return HAL_ERROR;
 314:Platform/STM32F4xx/drivers/STM32F4xx_HAL_Driver/Src/stm32f4xx_hal_rcc.c ****       }
 315:Platform/STM32F4xx/drivers/STM32F4xx_HAL_Driver/Src/stm32f4xx_hal_rcc.c ****       /* Otherwise, just the calibration is allowed */
 316:Platform/STM32F4xx/drivers/STM32F4xx_HAL_Driver/Src/stm32f4xx_hal_rcc.c ****       else
 317:Platform/STM32F4xx/drivers/STM32F4xx_HAL_Driver/Src/stm32f4xx_hal_rcc.c ****       {
 318:Platform/STM32F4xx/drivers/STM32F4xx_HAL_Driver/Src/stm32f4xx_hal_rcc.c ****         /* Adjusts the Internal High Speed oscillator (HSI) calibration value.*/
 319:Platform/STM32F4xx/drivers/STM32F4xx_HAL_Driver/Src/stm32f4xx_hal_rcc.c ****         __HAL_RCC_HSI_CALIBRATIONVALUE_ADJUST(RCC_OscInitStruct->HSICalibrationValue);
 320:Platform/STM32F4xx/drivers/STM32F4xx_HAL_Driver/Src/stm32f4xx_hal_rcc.c ****       }
 321:Platform/STM32F4xx/drivers/STM32F4xx_HAL_Driver/Src/stm32f4xx_hal_rcc.c ****     }
 322:Platform/STM32F4xx/drivers/STM32F4xx_HAL_Driver/Src/stm32f4xx_hal_rcc.c ****     else
 323:Platform/STM32F4xx/drivers/STM32F4xx_HAL_Driver/Src/stm32f4xx_hal_rcc.c ****     {
 324:Platform/STM32F4xx/drivers/STM32F4xx_HAL_Driver/Src/stm32f4xx_hal_rcc.c ****       /* Check the HSI State */
 325:Platform/STM32F4xx/drivers/STM32F4xx_HAL_Driver/Src/stm32f4xx_hal_rcc.c ****       if((RCC_OscInitStruct->HSIState)!= RCC_HSI_OFF)
 163              		.loc 1 325 0
 164 00aa E368     		ldr	r3, [r4, #12]
 165 00ac 002B     		cmp	r3, #0
 166 00ae 68D0     		beq	.L19
 326:Platform/STM32F4xx/drivers/STM32F4xx_HAL_Driver/Src/stm32f4xx_hal_rcc.c ****       {
 327:Platform/STM32F4xx/drivers/STM32F4xx_HAL_Driver/Src/stm32f4xx_hal_rcc.c ****         /* Enable the Internal High Speed oscillator (HSI). */
 328:Platform/STM32F4xx/drivers/STM32F4xx_HAL_Driver/Src/stm32f4xx_hal_rcc.c ****         __HAL_RCC_HSI_ENABLE();
 167              		.loc 1 328 0
 168 00b0 814B     		ldr	r3, .L87+4
 169 00b2 0122     		movs	r2, #1
 170 00b4 1A60     		str	r2, [r3]
 329:Platform/STM32F4xx/drivers/STM32F4xx_HAL_Driver/Src/stm32f4xx_hal_rcc.c **** 
 330:Platform/STM32F4xx/drivers/STM32F4xx_HAL_Driver/Src/stm32f4xx_hal_rcc.c ****         /* Get Start Tick*/
 331:Platform/STM32F4xx/drivers/STM32F4xx_HAL_Driver/Src/stm32f4xx_hal_rcc.c ****         tickstart = HAL_GetTick();
 171              		.loc 1 331 0
 172 00b6 FFF7FEFF 		bl	HAL_GetTick
 173              	.LVL6:
 174 00ba 0546     		mov	r5, r0
 175              	.LVL7:
 176              	.L20:
 332:Platform/STM32F4xx/drivers/STM32F4xx_HAL_Driver/Src/stm32f4xx_hal_rcc.c **** 
 333:Platform/STM32F4xx/drivers/STM32F4xx_HAL_Driver/Src/stm32f4xx_hal_rcc.c ****         /* Wait till HSI is ready */
 334:Platform/STM32F4xx/drivers/STM32F4xx_HAL_Driver/Src/stm32f4xx_hal_rcc.c ****         while(__HAL_RCC_GET_FLAG(RCC_FLAG_HSIRDY) == RESET)
ARM GAS  /tmp/ccSv8R8q.s 			page 10


 177              		.loc 1 334 0
 178 00bc 7D4B     		ldr	r3, .L87
 179 00be 1B68     		ldr	r3, [r3]
 180 00c0 13F0020F 		tst	r3, #2
 181 00c4 54D1     		bne	.L78
 335:Platform/STM32F4xx/drivers/STM32F4xx_HAL_Driver/Src/stm32f4xx_hal_rcc.c ****         {
 336:Platform/STM32F4xx/drivers/STM32F4xx_HAL_Driver/Src/stm32f4xx_hal_rcc.c ****           if((HAL_GetTick() - tickstart ) > HSI_TIMEOUT_VALUE)
 182              		.loc 1 336 0
 183 00c6 FFF7FEFF 		bl	HAL_GetTick
 184              	.LVL8:
 185 00ca 401B     		subs	r0, r0, r5
 186 00cc 0228     		cmp	r0, #2
 187 00ce F5D9     		bls	.L20
 337:Platform/STM32F4xx/drivers/STM32F4xx_HAL_Driver/Src/stm32f4xx_hal_rcc.c ****           {
 338:Platform/STM32F4xx/drivers/STM32F4xx_HAL_Driver/Src/stm32f4xx_hal_rcc.c ****             return HAL_TIMEOUT;
 188              		.loc 1 338 0
 189 00d0 0320     		movs	r0, #3
 190 00d2 58E1     		b	.L3
 191              	.LVL9:
 192              	.L74:
 266:Platform/STM32F4xx/drivers/STM32F4xx_HAL_Driver/Src/stm32f4xx_hal_rcc.c **** 
 193              		.loc 1 266 0 discriminator 1
 194 00d4 774A     		ldr	r2, .L87
 195 00d6 1368     		ldr	r3, [r2]
 196 00d8 43F48033 		orr	r3, r3, #65536
 197 00dc 1360     		str	r3, [r2]
 198 00de B5E7     		b	.L8
 199              	.L75:
 266:Platform/STM32F4xx/drivers/STM32F4xx_HAL_Driver/Src/stm32f4xx_hal_rcc.c **** 
 200              		.loc 1 266 0 is_stmt 0 discriminator 3
 201 00e0 744B     		ldr	r3, .L87
 202 00e2 1A68     		ldr	r2, [r3]
 203 00e4 42F48022 		orr	r2, r2, #262144
 204 00e8 1A60     		str	r2, [r3]
 205 00ea 1A68     		ldr	r2, [r3]
 206 00ec 42F48032 		orr	r2, r2, #65536
 207 00f0 1A60     		str	r2, [r3]
 208 00f2 ABE7     		b	.L8
 209              	.L10:
 286:Platform/STM32F4xx/drivers/STM32F4xx_HAL_Driver/Src/stm32f4xx_hal_rcc.c **** 
 210              		.loc 1 286 0 is_stmt 1
 211 00f4 FFF7FEFF 		bl	HAL_GetTick
 212              	.LVL10:
 213 00f8 0546     		mov	r5, r0
 214              	.LVL11:
 215              	.L13:
 289:Platform/STM32F4xx/drivers/STM32F4xx_HAL_Driver/Src/stm32f4xx_hal_rcc.c ****         {
 216              		.loc 1 289 0
 217 00fa 6E4B     		ldr	r3, .L87
 218 00fc 1B68     		ldr	r3, [r3]
 219 00fe 13F4003F 		tst	r3, #131072
 220 0102 C3D0     		beq	.L4
 291:Platform/STM32F4xx/drivers/STM32F4xx_HAL_Driver/Src/stm32f4xx_hal_rcc.c ****           {
 221              		.loc 1 291 0
 222 0104 FFF7FEFF 		bl	HAL_GetTick
 223              	.LVL12:
 224 0108 401B     		subs	r0, r0, r5
ARM GAS  /tmp/ccSv8R8q.s 			page 11


 225 010a 6428     		cmp	r0, #100
 226 010c F5D9     		bls	.L13
 293:Platform/STM32F4xx/drivers/STM32F4xx_HAL_Driver/Src/stm32f4xx_hal_rcc.c ****           }
 227              		.loc 1 293 0
 228 010e 0320     		movs	r0, #3
 229 0110 39E1     		b	.L3
 230              	.LVL13:
 231              	.L77:
 308:Platform/STM32F4xx/drivers/STM32F4xx_HAL_Driver/Src/stm32f4xx_hal_rcc.c ****     {
 232              		.loc 1 308 0
 233 0112 684B     		ldr	r3, .L87
 234 0114 5B68     		ldr	r3, [r3, #4]
 235 0116 13F4800F 		tst	r3, #4194304
 236 011a C6D1     		bne	.L17
 237              	.L16:
 311:Platform/STM32F4xx/drivers/STM32F4xx_HAL_Driver/Src/stm32f4xx_hal_rcc.c ****       {
 238              		.loc 1 311 0
 239 011c 654B     		ldr	r3, .L87
 240 011e 1B68     		ldr	r3, [r3]
 241 0120 13F0020F 		tst	r3, #2
 242 0124 04D0     		beq	.L18
 311:Platform/STM32F4xx/drivers/STM32F4xx_HAL_Driver/Src/stm32f4xx_hal_rcc.c ****       {
 243              		.loc 1 311 0 is_stmt 0 discriminator 1
 244 0126 E368     		ldr	r3, [r4, #12]
 245 0128 012B     		cmp	r3, #1
 246 012a 01D0     		beq	.L18
 313:Platform/STM32F4xx/drivers/STM32F4xx_HAL_Driver/Src/stm32f4xx_hal_rcc.c ****       }
 247              		.loc 1 313 0 is_stmt 1
 248 012c 0120     		movs	r0, #1
 249 012e 2AE1     		b	.L3
 250              	.L18:
 319:Platform/STM32F4xx/drivers/STM32F4xx_HAL_Driver/Src/stm32f4xx_hal_rcc.c ****       }
 251              		.loc 1 319 0
 252 0130 604A     		ldr	r2, .L87
 253 0132 1368     		ldr	r3, [r2]
 254 0134 23F0F803 		bic	r3, r3, #248
 255 0138 2169     		ldr	r1, [r4, #16]
 256 013a 43EAC103 		orr	r3, r3, r1, lsl #3
 257 013e 1360     		str	r3, [r2]
 258              	.L15:
 339:Platform/STM32F4xx/drivers/STM32F4xx_HAL_Driver/Src/stm32f4xx_hal_rcc.c ****           }
 340:Platform/STM32F4xx/drivers/STM32F4xx_HAL_Driver/Src/stm32f4xx_hal_rcc.c ****         }
 341:Platform/STM32F4xx/drivers/STM32F4xx_HAL_Driver/Src/stm32f4xx_hal_rcc.c **** 
 342:Platform/STM32F4xx/drivers/STM32F4xx_HAL_Driver/Src/stm32f4xx_hal_rcc.c ****         /* Adjusts the Internal High Speed oscillator (HSI) calibration value. */
 343:Platform/STM32F4xx/drivers/STM32F4xx_HAL_Driver/Src/stm32f4xx_hal_rcc.c ****         __HAL_RCC_HSI_CALIBRATIONVALUE_ADJUST(RCC_OscInitStruct->HSICalibrationValue);
 344:Platform/STM32F4xx/drivers/STM32F4xx_HAL_Driver/Src/stm32f4xx_hal_rcc.c ****       }
 345:Platform/STM32F4xx/drivers/STM32F4xx_HAL_Driver/Src/stm32f4xx_hal_rcc.c ****       else
 346:Platform/STM32F4xx/drivers/STM32F4xx_HAL_Driver/Src/stm32f4xx_hal_rcc.c ****       {
 347:Platform/STM32F4xx/drivers/STM32F4xx_HAL_Driver/Src/stm32f4xx_hal_rcc.c ****         /* Disable the Internal High Speed oscillator (HSI). */
 348:Platform/STM32F4xx/drivers/STM32F4xx_HAL_Driver/Src/stm32f4xx_hal_rcc.c ****         __HAL_RCC_HSI_DISABLE();
 349:Platform/STM32F4xx/drivers/STM32F4xx_HAL_Driver/Src/stm32f4xx_hal_rcc.c **** 
 350:Platform/STM32F4xx/drivers/STM32F4xx_HAL_Driver/Src/stm32f4xx_hal_rcc.c ****         /* Get Start Tick*/
 351:Platform/STM32F4xx/drivers/STM32F4xx_HAL_Driver/Src/stm32f4xx_hal_rcc.c ****         tickstart = HAL_GetTick();
 352:Platform/STM32F4xx/drivers/STM32F4xx_HAL_Driver/Src/stm32f4xx_hal_rcc.c **** 
 353:Platform/STM32F4xx/drivers/STM32F4xx_HAL_Driver/Src/stm32f4xx_hal_rcc.c ****         /* Wait till HSI is ready */
 354:Platform/STM32F4xx/drivers/STM32F4xx_HAL_Driver/Src/stm32f4xx_hal_rcc.c ****         while(__HAL_RCC_GET_FLAG(RCC_FLAG_HSIRDY) != RESET)
 355:Platform/STM32F4xx/drivers/STM32F4xx_HAL_Driver/Src/stm32f4xx_hal_rcc.c ****         {
ARM GAS  /tmp/ccSv8R8q.s 			page 12


 356:Platform/STM32F4xx/drivers/STM32F4xx_HAL_Driver/Src/stm32f4xx_hal_rcc.c ****           if((HAL_GetTick() - tickstart ) > HSI_TIMEOUT_VALUE)
 357:Platform/STM32F4xx/drivers/STM32F4xx_HAL_Driver/Src/stm32f4xx_hal_rcc.c ****           {
 358:Platform/STM32F4xx/drivers/STM32F4xx_HAL_Driver/Src/stm32f4xx_hal_rcc.c ****             return HAL_TIMEOUT;
 359:Platform/STM32F4xx/drivers/STM32F4xx_HAL_Driver/Src/stm32f4xx_hal_rcc.c ****           }
 360:Platform/STM32F4xx/drivers/STM32F4xx_HAL_Driver/Src/stm32f4xx_hal_rcc.c ****         }
 361:Platform/STM32F4xx/drivers/STM32F4xx_HAL_Driver/Src/stm32f4xx_hal_rcc.c ****       }
 362:Platform/STM32F4xx/drivers/STM32F4xx_HAL_Driver/Src/stm32f4xx_hal_rcc.c ****     }
 363:Platform/STM32F4xx/drivers/STM32F4xx_HAL_Driver/Src/stm32f4xx_hal_rcc.c ****   }
 364:Platform/STM32F4xx/drivers/STM32F4xx_HAL_Driver/Src/stm32f4xx_hal_rcc.c ****   /*------------------------------ LSI Configuration -------------------------*/
 365:Platform/STM32F4xx/drivers/STM32F4xx_HAL_Driver/Src/stm32f4xx_hal_rcc.c ****   if(((RCC_OscInitStruct->OscillatorType) & RCC_OSCILLATORTYPE_LSI) == RCC_OSCILLATORTYPE_LSI)
 259              		.loc 1 365 0
 260 0140 2368     		ldr	r3, [r4]
 261 0142 13F0080F 		tst	r3, #8
 262 0146 40D0     		beq	.L24
 366:Platform/STM32F4xx/drivers/STM32F4xx_HAL_Driver/Src/stm32f4xx_hal_rcc.c ****   {
 367:Platform/STM32F4xx/drivers/STM32F4xx_HAL_Driver/Src/stm32f4xx_hal_rcc.c ****     /* Check the parameters */
 368:Platform/STM32F4xx/drivers/STM32F4xx_HAL_Driver/Src/stm32f4xx_hal_rcc.c ****     assert_param(IS_RCC_LSI(RCC_OscInitStruct->LSIState));
 369:Platform/STM32F4xx/drivers/STM32F4xx_HAL_Driver/Src/stm32f4xx_hal_rcc.c **** 
 370:Platform/STM32F4xx/drivers/STM32F4xx_HAL_Driver/Src/stm32f4xx_hal_rcc.c ****     /* Check the LSI State */
 371:Platform/STM32F4xx/drivers/STM32F4xx_HAL_Driver/Src/stm32f4xx_hal_rcc.c ****     if((RCC_OscInitStruct->LSIState)!= RCC_LSI_OFF)
 263              		.loc 1 371 0
 264 0148 6369     		ldr	r3, [r4, #20]
 265 014a 63B3     		cbz	r3, .L25
 372:Platform/STM32F4xx/drivers/STM32F4xx_HAL_Driver/Src/stm32f4xx_hal_rcc.c ****     {
 373:Platform/STM32F4xx/drivers/STM32F4xx_HAL_Driver/Src/stm32f4xx_hal_rcc.c ****       /* Enable the Internal Low Speed oscillator (LSI). */
 374:Platform/STM32F4xx/drivers/STM32F4xx_HAL_Driver/Src/stm32f4xx_hal_rcc.c ****       __HAL_RCC_LSI_ENABLE();
 266              		.loc 1 374 0
 267 014c 5B4B     		ldr	r3, .L87+8
 268 014e 0122     		movs	r2, #1
 269 0150 1A60     		str	r2, [r3]
 375:Platform/STM32F4xx/drivers/STM32F4xx_HAL_Driver/Src/stm32f4xx_hal_rcc.c **** 
 376:Platform/STM32F4xx/drivers/STM32F4xx_HAL_Driver/Src/stm32f4xx_hal_rcc.c ****       /* Get Start Tick*/
 377:Platform/STM32F4xx/drivers/STM32F4xx_HAL_Driver/Src/stm32f4xx_hal_rcc.c ****       tickstart = HAL_GetTick();
 270              		.loc 1 377 0
 271 0152 FFF7FEFF 		bl	HAL_GetTick
 272              	.LVL14:
 273 0156 0546     		mov	r5, r0
 274              	.LVL15:
 275              	.L26:
 378:Platform/STM32F4xx/drivers/STM32F4xx_HAL_Driver/Src/stm32f4xx_hal_rcc.c **** 
 379:Platform/STM32F4xx/drivers/STM32F4xx_HAL_Driver/Src/stm32f4xx_hal_rcc.c ****       /* Wait till LSI is ready */
 380:Platform/STM32F4xx/drivers/STM32F4xx_HAL_Driver/Src/stm32f4xx_hal_rcc.c ****       while(__HAL_RCC_GET_FLAG(RCC_FLAG_LSIRDY) == RESET)
 276              		.loc 1 380 0
 277 0158 564B     		ldr	r3, .L87
 278 015a 5B6F     		ldr	r3, [r3, #116]
 279 015c 13F0020F 		tst	r3, #2
 280 0160 33D1     		bne	.L24
 381:Platform/STM32F4xx/drivers/STM32F4xx_HAL_Driver/Src/stm32f4xx_hal_rcc.c ****       {
 382:Platform/STM32F4xx/drivers/STM32F4xx_HAL_Driver/Src/stm32f4xx_hal_rcc.c ****         if((HAL_GetTick() - tickstart ) > LSI_TIMEOUT_VALUE)
 281              		.loc 1 382 0
 282 0162 FFF7FEFF 		bl	HAL_GetTick
 283              	.LVL16:
 284 0166 401B     		subs	r0, r0, r5
 285 0168 0228     		cmp	r0, #2
 286 016a F5D9     		bls	.L26
 383:Platform/STM32F4xx/drivers/STM32F4xx_HAL_Driver/Src/stm32f4xx_hal_rcc.c ****         {
 384:Platform/STM32F4xx/drivers/STM32F4xx_HAL_Driver/Src/stm32f4xx_hal_rcc.c ****           return HAL_TIMEOUT;
ARM GAS  /tmp/ccSv8R8q.s 			page 13


 287              		.loc 1 384 0
 288 016c 0320     		movs	r0, #3
 289 016e 0AE1     		b	.L3
 290              	.L78:
 343:Platform/STM32F4xx/drivers/STM32F4xx_HAL_Driver/Src/stm32f4xx_hal_rcc.c ****       }
 291              		.loc 1 343 0
 292 0170 504A     		ldr	r2, .L87
 293 0172 1368     		ldr	r3, [r2]
 294 0174 23F0F803 		bic	r3, r3, #248
 295 0178 2169     		ldr	r1, [r4, #16]
 296 017a 43EAC103 		orr	r3, r3, r1, lsl #3
 297 017e 1360     		str	r3, [r2]
 298 0180 DEE7     		b	.L15
 299              	.LVL17:
 300              	.L19:
 348:Platform/STM32F4xx/drivers/STM32F4xx_HAL_Driver/Src/stm32f4xx_hal_rcc.c **** 
 301              		.loc 1 348 0
 302 0182 4D4B     		ldr	r3, .L87+4
 303 0184 0022     		movs	r2, #0
 304 0186 1A60     		str	r2, [r3]
 351:Platform/STM32F4xx/drivers/STM32F4xx_HAL_Driver/Src/stm32f4xx_hal_rcc.c **** 
 305              		.loc 1 351 0
 306 0188 FFF7FEFF 		bl	HAL_GetTick
 307              	.LVL18:
 308 018c 0546     		mov	r5, r0
 309              	.LVL19:
 310              	.L22:
 354:Platform/STM32F4xx/drivers/STM32F4xx_HAL_Driver/Src/stm32f4xx_hal_rcc.c ****         {
 311              		.loc 1 354 0
 312 018e 494B     		ldr	r3, .L87
 313 0190 1B68     		ldr	r3, [r3]
 314 0192 13F0020F 		tst	r3, #2
 315 0196 D3D0     		beq	.L15
 356:Platform/STM32F4xx/drivers/STM32F4xx_HAL_Driver/Src/stm32f4xx_hal_rcc.c ****           {
 316              		.loc 1 356 0
 317 0198 FFF7FEFF 		bl	HAL_GetTick
 318              	.LVL20:
 319 019c 401B     		subs	r0, r0, r5
 320 019e 0228     		cmp	r0, #2
 321 01a0 F5D9     		bls	.L22
 358:Platform/STM32F4xx/drivers/STM32F4xx_HAL_Driver/Src/stm32f4xx_hal_rcc.c ****           }
 322              		.loc 1 358 0
 323 01a2 0320     		movs	r0, #3
 324 01a4 EFE0     		b	.L3
 325              	.LVL21:
 326              	.L25:
 385:Platform/STM32F4xx/drivers/STM32F4xx_HAL_Driver/Src/stm32f4xx_hal_rcc.c ****         }
 386:Platform/STM32F4xx/drivers/STM32F4xx_HAL_Driver/Src/stm32f4xx_hal_rcc.c ****       }
 387:Platform/STM32F4xx/drivers/STM32F4xx_HAL_Driver/Src/stm32f4xx_hal_rcc.c ****     }
 388:Platform/STM32F4xx/drivers/STM32F4xx_HAL_Driver/Src/stm32f4xx_hal_rcc.c ****     else
 389:Platform/STM32F4xx/drivers/STM32F4xx_HAL_Driver/Src/stm32f4xx_hal_rcc.c ****     {
 390:Platform/STM32F4xx/drivers/STM32F4xx_HAL_Driver/Src/stm32f4xx_hal_rcc.c ****       /* Disable the Internal Low Speed oscillator (LSI). */
 391:Platform/STM32F4xx/drivers/STM32F4xx_HAL_Driver/Src/stm32f4xx_hal_rcc.c ****       __HAL_RCC_LSI_DISABLE();
 327              		.loc 1 391 0
 328 01a6 454B     		ldr	r3, .L87+8
 329 01a8 0022     		movs	r2, #0
 330 01aa 1A60     		str	r2, [r3]
ARM GAS  /tmp/ccSv8R8q.s 			page 14


 392:Platform/STM32F4xx/drivers/STM32F4xx_HAL_Driver/Src/stm32f4xx_hal_rcc.c **** 
 393:Platform/STM32F4xx/drivers/STM32F4xx_HAL_Driver/Src/stm32f4xx_hal_rcc.c ****       /* Get Start Tick */
 394:Platform/STM32F4xx/drivers/STM32F4xx_HAL_Driver/Src/stm32f4xx_hal_rcc.c ****       tickstart = HAL_GetTick();
 331              		.loc 1 394 0
 332 01ac FFF7FEFF 		bl	HAL_GetTick
 333              	.LVL22:
 334 01b0 0546     		mov	r5, r0
 335              	.LVL23:
 336              	.L28:
 395:Platform/STM32F4xx/drivers/STM32F4xx_HAL_Driver/Src/stm32f4xx_hal_rcc.c **** 
 396:Platform/STM32F4xx/drivers/STM32F4xx_HAL_Driver/Src/stm32f4xx_hal_rcc.c ****       /* Wait till LSI is ready */
 397:Platform/STM32F4xx/drivers/STM32F4xx_HAL_Driver/Src/stm32f4xx_hal_rcc.c ****       while(__HAL_RCC_GET_FLAG(RCC_FLAG_LSIRDY) != RESET)
 337              		.loc 1 397 0
 338 01b2 404B     		ldr	r3, .L87
 339 01b4 5B6F     		ldr	r3, [r3, #116]
 340 01b6 13F0020F 		tst	r3, #2
 341 01ba 06D0     		beq	.L24
 398:Platform/STM32F4xx/drivers/STM32F4xx_HAL_Driver/Src/stm32f4xx_hal_rcc.c ****       {
 399:Platform/STM32F4xx/drivers/STM32F4xx_HAL_Driver/Src/stm32f4xx_hal_rcc.c ****         if((HAL_GetTick() - tickstart ) > LSI_TIMEOUT_VALUE)
 342              		.loc 1 399 0
 343 01bc FFF7FEFF 		bl	HAL_GetTick
 344              	.LVL24:
 345 01c0 401B     		subs	r0, r0, r5
 346 01c2 0228     		cmp	r0, #2
 347 01c4 F5D9     		bls	.L28
 400:Platform/STM32F4xx/drivers/STM32F4xx_HAL_Driver/Src/stm32f4xx_hal_rcc.c ****         {
 401:Platform/STM32F4xx/drivers/STM32F4xx_HAL_Driver/Src/stm32f4xx_hal_rcc.c ****           return HAL_TIMEOUT;
 348              		.loc 1 401 0
 349 01c6 0320     		movs	r0, #3
 350 01c8 DDE0     		b	.L3
 351              	.LVL25:
 352              	.L24:
 402:Platform/STM32F4xx/drivers/STM32F4xx_HAL_Driver/Src/stm32f4xx_hal_rcc.c ****         }
 403:Platform/STM32F4xx/drivers/STM32F4xx_HAL_Driver/Src/stm32f4xx_hal_rcc.c ****       }
 404:Platform/STM32F4xx/drivers/STM32F4xx_HAL_Driver/Src/stm32f4xx_hal_rcc.c ****     }
 405:Platform/STM32F4xx/drivers/STM32F4xx_HAL_Driver/Src/stm32f4xx_hal_rcc.c ****   }
 406:Platform/STM32F4xx/drivers/STM32F4xx_HAL_Driver/Src/stm32f4xx_hal_rcc.c ****   /*------------------------------ LSE Configuration -------------------------*/
 407:Platform/STM32F4xx/drivers/STM32F4xx_HAL_Driver/Src/stm32f4xx_hal_rcc.c ****   if(((RCC_OscInitStruct->OscillatorType) & RCC_OSCILLATORTYPE_LSE) == RCC_OSCILLATORTYPE_LSE)
 353              		.loc 1 407 0
 354 01ca 2368     		ldr	r3, [r4]
 355 01cc 13F0040F 		tst	r3, #4
 356 01d0 79D0     		beq	.L30
 357              	.LVL26:
 358              	.LBB2:
 408:Platform/STM32F4xx/drivers/STM32F4xx_HAL_Driver/Src/stm32f4xx_hal_rcc.c ****   {
 409:Platform/STM32F4xx/drivers/STM32F4xx_HAL_Driver/Src/stm32f4xx_hal_rcc.c ****     FlagStatus       pwrclkchanged = RESET;
 410:Platform/STM32F4xx/drivers/STM32F4xx_HAL_Driver/Src/stm32f4xx_hal_rcc.c **** 
 411:Platform/STM32F4xx/drivers/STM32F4xx_HAL_Driver/Src/stm32f4xx_hal_rcc.c ****     /* Check the parameters */
 412:Platform/STM32F4xx/drivers/STM32F4xx_HAL_Driver/Src/stm32f4xx_hal_rcc.c ****     assert_param(IS_RCC_LSE(RCC_OscInitStruct->LSEState));
 413:Platform/STM32F4xx/drivers/STM32F4xx_HAL_Driver/Src/stm32f4xx_hal_rcc.c **** 
 414:Platform/STM32F4xx/drivers/STM32F4xx_HAL_Driver/Src/stm32f4xx_hal_rcc.c ****     /* Update LSE configuration in Backup Domain control register    */
 415:Platform/STM32F4xx/drivers/STM32F4xx_HAL_Driver/Src/stm32f4xx_hal_rcc.c ****     /* Requires to enable write access to Backup Domain of necessary */
 416:Platform/STM32F4xx/drivers/STM32F4xx_HAL_Driver/Src/stm32f4xx_hal_rcc.c ****     if(__HAL_RCC_PWR_IS_CLK_DISABLED())
 359              		.loc 1 416 0
 360 01d2 384B     		ldr	r3, .L87
 361 01d4 1B6C     		ldr	r3, [r3, #64]
 362 01d6 13F0805F 		tst	r3, #268435456
ARM GAS  /tmp/ccSv8R8q.s 			page 15


 363 01da 33D1     		bne	.L60
 364              	.LBB3:
 417:Platform/STM32F4xx/drivers/STM32F4xx_HAL_Driver/Src/stm32f4xx_hal_rcc.c ****     {
 418:Platform/STM32F4xx/drivers/STM32F4xx_HAL_Driver/Src/stm32f4xx_hal_rcc.c ****       __HAL_RCC_PWR_CLK_ENABLE();
 365              		.loc 1 418 0
 366 01dc 0023     		movs	r3, #0
 367 01de 0193     		str	r3, [sp, #4]
 368 01e0 344B     		ldr	r3, .L87
 369 01e2 1A6C     		ldr	r2, [r3, #64]
 370 01e4 42F08052 		orr	r2, r2, #268435456
 371 01e8 1A64     		str	r2, [r3, #64]
 372 01ea 1B6C     		ldr	r3, [r3, #64]
 373 01ec 03F08053 		and	r3, r3, #268435456
 374 01f0 0193     		str	r3, [sp, #4]
 375 01f2 019B     		ldr	r3, [sp, #4]
 376              	.LVL27:
 377              	.LBE3:
 419:Platform/STM32F4xx/drivers/STM32F4xx_HAL_Driver/Src/stm32f4xx_hal_rcc.c ****       pwrclkchanged = SET;
 378              		.loc 1 419 0
 379 01f4 0125     		movs	r5, #1
 380              	.LVL28:
 381              	.L31:
 420:Platform/STM32F4xx/drivers/STM32F4xx_HAL_Driver/Src/stm32f4xx_hal_rcc.c ****     }
 421:Platform/STM32F4xx/drivers/STM32F4xx_HAL_Driver/Src/stm32f4xx_hal_rcc.c **** 
 422:Platform/STM32F4xx/drivers/STM32F4xx_HAL_Driver/Src/stm32f4xx_hal_rcc.c ****     if(HAL_IS_BIT_CLR(PWR->CR, PWR_CR_DBP))
 382              		.loc 1 422 0
 383 01f6 324B     		ldr	r3, .L87+12
 384 01f8 1B68     		ldr	r3, [r3]
 385 01fa 13F4807F 		tst	r3, #256
 386 01fe 23D0     		beq	.L79
 387              	.L32:
 423:Platform/STM32F4xx/drivers/STM32F4xx_HAL_Driver/Src/stm32f4xx_hal_rcc.c ****     {
 424:Platform/STM32F4xx/drivers/STM32F4xx_HAL_Driver/Src/stm32f4xx_hal_rcc.c ****       /* Enable write access to Backup domain */
 425:Platform/STM32F4xx/drivers/STM32F4xx_HAL_Driver/Src/stm32f4xx_hal_rcc.c ****       SET_BIT(PWR->CR, PWR_CR_DBP);
 426:Platform/STM32F4xx/drivers/STM32F4xx_HAL_Driver/Src/stm32f4xx_hal_rcc.c **** 
 427:Platform/STM32F4xx/drivers/STM32F4xx_HAL_Driver/Src/stm32f4xx_hal_rcc.c ****       /* Wait for Backup domain Write protection disable */
 428:Platform/STM32F4xx/drivers/STM32F4xx_HAL_Driver/Src/stm32f4xx_hal_rcc.c ****       tickstart = HAL_GetTick();
 429:Platform/STM32F4xx/drivers/STM32F4xx_HAL_Driver/Src/stm32f4xx_hal_rcc.c **** 
 430:Platform/STM32F4xx/drivers/STM32F4xx_HAL_Driver/Src/stm32f4xx_hal_rcc.c ****       while(HAL_IS_BIT_CLR(PWR->CR, PWR_CR_DBP))
 431:Platform/STM32F4xx/drivers/STM32F4xx_HAL_Driver/Src/stm32f4xx_hal_rcc.c ****       {
 432:Platform/STM32F4xx/drivers/STM32F4xx_HAL_Driver/Src/stm32f4xx_hal_rcc.c ****         if((HAL_GetTick() - tickstart) > RCC_DBP_TIMEOUT_VALUE)
 433:Platform/STM32F4xx/drivers/STM32F4xx_HAL_Driver/Src/stm32f4xx_hal_rcc.c ****         {
 434:Platform/STM32F4xx/drivers/STM32F4xx_HAL_Driver/Src/stm32f4xx_hal_rcc.c ****           return HAL_TIMEOUT;
 435:Platform/STM32F4xx/drivers/STM32F4xx_HAL_Driver/Src/stm32f4xx_hal_rcc.c ****         }
 436:Platform/STM32F4xx/drivers/STM32F4xx_HAL_Driver/Src/stm32f4xx_hal_rcc.c ****       }
 437:Platform/STM32F4xx/drivers/STM32F4xx_HAL_Driver/Src/stm32f4xx_hal_rcc.c ****     }
 438:Platform/STM32F4xx/drivers/STM32F4xx_HAL_Driver/Src/stm32f4xx_hal_rcc.c **** 
 439:Platform/STM32F4xx/drivers/STM32F4xx_HAL_Driver/Src/stm32f4xx_hal_rcc.c ****     /* Set the new LSE configuration -----------------------------------------*/
 440:Platform/STM32F4xx/drivers/STM32F4xx_HAL_Driver/Src/stm32f4xx_hal_rcc.c ****     __HAL_RCC_LSE_CONFIG(RCC_OscInitStruct->LSEState);
 388              		.loc 1 440 0
 389 0200 A368     		ldr	r3, [r4, #8]
 390 0202 012B     		cmp	r3, #1
 391 0204 34D0     		beq	.L80
 392              		.loc 1 440 0 is_stmt 0 discriminator 2
 393 0206 052B     		cmp	r3, #5
 394 0208 38D0     		beq	.L81
 395              		.loc 1 440 0 discriminator 4
ARM GAS  /tmp/ccSv8R8q.s 			page 16


 396 020a 2A4B     		ldr	r3, .L87
 397 020c 1A6F     		ldr	r2, [r3, #112]
 398 020e 22F00102 		bic	r2, r2, #1
 399 0212 1A67     		str	r2, [r3, #112]
 400 0214 1A6F     		ldr	r2, [r3, #112]
 401 0216 22F00402 		bic	r2, r2, #4
 402 021a 1A67     		str	r2, [r3, #112]
 403              	.L36:
 441:Platform/STM32F4xx/drivers/STM32F4xx_HAL_Driver/Src/stm32f4xx_hal_rcc.c ****     /* Check the LSE State */
 442:Platform/STM32F4xx/drivers/STM32F4xx_HAL_Driver/Src/stm32f4xx_hal_rcc.c ****     if((RCC_OscInitStruct->LSEState) != RCC_LSE_OFF)
 404              		.loc 1 442 0 is_stmt 1
 405 021c A368     		ldr	r3, [r4, #8]
 406 021e 002B     		cmp	r3, #0
 407 0220 36D0     		beq	.L38
 443:Platform/STM32F4xx/drivers/STM32F4xx_HAL_Driver/Src/stm32f4xx_hal_rcc.c ****     {
 444:Platform/STM32F4xx/drivers/STM32F4xx_HAL_Driver/Src/stm32f4xx_hal_rcc.c ****       /* Get Start Tick*/
 445:Platform/STM32F4xx/drivers/STM32F4xx_HAL_Driver/Src/stm32f4xx_hal_rcc.c ****       tickstart = HAL_GetTick();
 408              		.loc 1 445 0
 409 0222 FFF7FEFF 		bl	HAL_GetTick
 410              	.LVL29:
 411 0226 0646     		mov	r6, r0
 412              	.LVL30:
 413              	.L39:
 446:Platform/STM32F4xx/drivers/STM32F4xx_HAL_Driver/Src/stm32f4xx_hal_rcc.c **** 
 447:Platform/STM32F4xx/drivers/STM32F4xx_HAL_Driver/Src/stm32f4xx_hal_rcc.c ****       /* Wait till LSE is ready */
 448:Platform/STM32F4xx/drivers/STM32F4xx_HAL_Driver/Src/stm32f4xx_hal_rcc.c ****       while(__HAL_RCC_GET_FLAG(RCC_FLAG_LSERDY) == RESET)
 414              		.loc 1 448 0
 415 0228 224B     		ldr	r3, .L87
 416 022a 1B6F     		ldr	r3, [r3, #112]
 417 022c 13F0020F 		tst	r3, #2
 418 0230 48D1     		bne	.L41
 449:Platform/STM32F4xx/drivers/STM32F4xx_HAL_Driver/Src/stm32f4xx_hal_rcc.c ****       {
 450:Platform/STM32F4xx/drivers/STM32F4xx_HAL_Driver/Src/stm32f4xx_hal_rcc.c ****         if((HAL_GetTick() - tickstart ) > RCC_LSE_TIMEOUT_VALUE)
 419              		.loc 1 450 0
 420 0232 FFF7FEFF 		bl	HAL_GetTick
 421              	.LVL31:
 422 0236 801B     		subs	r0, r0, r6
 423 0238 41F28833 		movw	r3, #5000
 424 023c 9842     		cmp	r0, r3
 425 023e F3D9     		bls	.L39
 451:Platform/STM32F4xx/drivers/STM32F4xx_HAL_Driver/Src/stm32f4xx_hal_rcc.c ****         {
 452:Platform/STM32F4xx/drivers/STM32F4xx_HAL_Driver/Src/stm32f4xx_hal_rcc.c ****           return HAL_TIMEOUT;
 426              		.loc 1 452 0
 427 0240 0320     		movs	r0, #3
 428 0242 A0E0     		b	.L3
 429              	.LVL32:
 430              	.L60:
 409:Platform/STM32F4xx/drivers/STM32F4xx_HAL_Driver/Src/stm32f4xx_hal_rcc.c **** 
 431              		.loc 1 409 0
 432 0244 0025     		movs	r5, #0
 433 0246 D6E7     		b	.L31
 434              	.LVL33:
 435              	.L79:
 425:Platform/STM32F4xx/drivers/STM32F4xx_HAL_Driver/Src/stm32f4xx_hal_rcc.c **** 
 436              		.loc 1 425 0
 437 0248 1D4A     		ldr	r2, .L87+12
 438 024a 1368     		ldr	r3, [r2]
ARM GAS  /tmp/ccSv8R8q.s 			page 17


 439 024c 43F48073 		orr	r3, r3, #256
 440 0250 1360     		str	r3, [r2]
 428:Platform/STM32F4xx/drivers/STM32F4xx_HAL_Driver/Src/stm32f4xx_hal_rcc.c **** 
 441              		.loc 1 428 0
 442 0252 FFF7FEFF 		bl	HAL_GetTick
 443              	.LVL34:
 444 0256 0646     		mov	r6, r0
 445              	.LVL35:
 446              	.L33:
 430:Platform/STM32F4xx/drivers/STM32F4xx_HAL_Driver/Src/stm32f4xx_hal_rcc.c ****       {
 447              		.loc 1 430 0
 448 0258 194B     		ldr	r3, .L87+12
 449 025a 1B68     		ldr	r3, [r3]
 450 025c 13F4807F 		tst	r3, #256
 451 0260 CED1     		bne	.L32
 432:Platform/STM32F4xx/drivers/STM32F4xx_HAL_Driver/Src/stm32f4xx_hal_rcc.c ****         {
 452              		.loc 1 432 0
 453 0262 FFF7FEFF 		bl	HAL_GetTick
 454              	.LVL36:
 455 0266 801B     		subs	r0, r0, r6
 456 0268 0228     		cmp	r0, #2
 457 026a F5D9     		bls	.L33
 434:Platform/STM32F4xx/drivers/STM32F4xx_HAL_Driver/Src/stm32f4xx_hal_rcc.c ****         }
 458              		.loc 1 434 0
 459 026c 0320     		movs	r0, #3
 460 026e 8AE0     		b	.L3
 461              	.LVL37:
 462              	.L80:
 440:Platform/STM32F4xx/drivers/STM32F4xx_HAL_Driver/Src/stm32f4xx_hal_rcc.c ****     /* Check the LSE State */
 463              		.loc 1 440 0 discriminator 1
 464 0270 104A     		ldr	r2, .L87
 465 0272 136F     		ldr	r3, [r2, #112]
 466 0274 43F00103 		orr	r3, r3, #1
 467 0278 1367     		str	r3, [r2, #112]
 468 027a CFE7     		b	.L36
 469              	.L81:
 440:Platform/STM32F4xx/drivers/STM32F4xx_HAL_Driver/Src/stm32f4xx_hal_rcc.c ****     /* Check the LSE State */
 470              		.loc 1 440 0 is_stmt 0 discriminator 3
 471 027c 0D4B     		ldr	r3, .L87
 472 027e 1A6F     		ldr	r2, [r3, #112]
 473 0280 42F00402 		orr	r2, r2, #4
 474 0284 1A67     		str	r2, [r3, #112]
 475 0286 1A6F     		ldr	r2, [r3, #112]
 476 0288 42F00102 		orr	r2, r2, #1
 477 028c 1A67     		str	r2, [r3, #112]
 478 028e C5E7     		b	.L36
 479              	.L38:
 453:Platform/STM32F4xx/drivers/STM32F4xx_HAL_Driver/Src/stm32f4xx_hal_rcc.c ****         }
 454:Platform/STM32F4xx/drivers/STM32F4xx_HAL_Driver/Src/stm32f4xx_hal_rcc.c ****       }
 455:Platform/STM32F4xx/drivers/STM32F4xx_HAL_Driver/Src/stm32f4xx_hal_rcc.c ****     }
 456:Platform/STM32F4xx/drivers/STM32F4xx_HAL_Driver/Src/stm32f4xx_hal_rcc.c ****     else
 457:Platform/STM32F4xx/drivers/STM32F4xx_HAL_Driver/Src/stm32f4xx_hal_rcc.c ****     {
 458:Platform/STM32F4xx/drivers/STM32F4xx_HAL_Driver/Src/stm32f4xx_hal_rcc.c ****       /* Get Start Tick */
 459:Platform/STM32F4xx/drivers/STM32F4xx_HAL_Driver/Src/stm32f4xx_hal_rcc.c ****       tickstart = HAL_GetTick();
 480              		.loc 1 459 0 is_stmt 1
 481 0290 FFF7FEFF 		bl	HAL_GetTick
 482              	.LVL38:
ARM GAS  /tmp/ccSv8R8q.s 			page 18


 483 0294 0646     		mov	r6, r0
 484              	.LVL39:
 485              	.L42:
 460:Platform/STM32F4xx/drivers/STM32F4xx_HAL_Driver/Src/stm32f4xx_hal_rcc.c **** 
 461:Platform/STM32F4xx/drivers/STM32F4xx_HAL_Driver/Src/stm32f4xx_hal_rcc.c ****       /* Wait till LSE is ready */
 462:Platform/STM32F4xx/drivers/STM32F4xx_HAL_Driver/Src/stm32f4xx_hal_rcc.c ****       while(__HAL_RCC_GET_FLAG(RCC_FLAG_LSERDY) != RESET)
 486              		.loc 1 462 0
 487 0296 074B     		ldr	r3, .L87
 488 0298 1B6F     		ldr	r3, [r3, #112]
 489 029a 13F0020F 		tst	r3, #2
 490 029e 11D0     		beq	.L41
 463:Platform/STM32F4xx/drivers/STM32F4xx_HAL_Driver/Src/stm32f4xx_hal_rcc.c ****       {
 464:Platform/STM32F4xx/drivers/STM32F4xx_HAL_Driver/Src/stm32f4xx_hal_rcc.c ****         if((HAL_GetTick() - tickstart ) > RCC_LSE_TIMEOUT_VALUE)
 491              		.loc 1 464 0
 492 02a0 FFF7FEFF 		bl	HAL_GetTick
 493              	.LVL40:
 494 02a4 801B     		subs	r0, r0, r6
 495 02a6 41F28833 		movw	r3, #5000
 496 02aa 9842     		cmp	r0, r3
 497 02ac F3D9     		bls	.L42
 465:Platform/STM32F4xx/drivers/STM32F4xx_HAL_Driver/Src/stm32f4xx_hal_rcc.c ****         {
 466:Platform/STM32F4xx/drivers/STM32F4xx_HAL_Driver/Src/stm32f4xx_hal_rcc.c ****           return HAL_TIMEOUT;
 498              		.loc 1 466 0
 499 02ae 0320     		movs	r0, #3
 500 02b0 69E0     		b	.L3
 501              	.L88:
 502 02b2 00BF     		.align	2
 503              	.L87:
 504 02b4 00380240 		.word	1073887232
 505 02b8 00004742 		.word	1111949312
 506 02bc 800E4742 		.word	1111953024
 507 02c0 00700040 		.word	1073770496
 508              	.L41:
 467:Platform/STM32F4xx/drivers/STM32F4xx_HAL_Driver/Src/stm32f4xx_hal_rcc.c ****         }
 468:Platform/STM32F4xx/drivers/STM32F4xx_HAL_Driver/Src/stm32f4xx_hal_rcc.c ****       }
 469:Platform/STM32F4xx/drivers/STM32F4xx_HAL_Driver/Src/stm32f4xx_hal_rcc.c ****     }
 470:Platform/STM32F4xx/drivers/STM32F4xx_HAL_Driver/Src/stm32f4xx_hal_rcc.c **** 
 471:Platform/STM32F4xx/drivers/STM32F4xx_HAL_Driver/Src/stm32f4xx_hal_rcc.c ****     /* Restore clock configuration if changed */
 472:Platform/STM32F4xx/drivers/STM32F4xx_HAL_Driver/Src/stm32f4xx_hal_rcc.c ****     if(pwrclkchanged == SET)
 509              		.loc 1 472 0
 510 02c4 E5B9     		cbnz	r5, .L82
 511              	.LVL41:
 512              	.L30:
 513              	.LBE2:
 473:Platform/STM32F4xx/drivers/STM32F4xx_HAL_Driver/Src/stm32f4xx_hal_rcc.c ****     {
 474:Platform/STM32F4xx/drivers/STM32F4xx_HAL_Driver/Src/stm32f4xx_hal_rcc.c ****       __HAL_RCC_PWR_CLK_DISABLE();
 475:Platform/STM32F4xx/drivers/STM32F4xx_HAL_Driver/Src/stm32f4xx_hal_rcc.c ****     }
 476:Platform/STM32F4xx/drivers/STM32F4xx_HAL_Driver/Src/stm32f4xx_hal_rcc.c ****   }
 477:Platform/STM32F4xx/drivers/STM32F4xx_HAL_Driver/Src/stm32f4xx_hal_rcc.c ****   /*-------------------------------- PLL Configuration -----------------------*/
 478:Platform/STM32F4xx/drivers/STM32F4xx_HAL_Driver/Src/stm32f4xx_hal_rcc.c ****   /* Check the parameters */
 479:Platform/STM32F4xx/drivers/STM32F4xx_HAL_Driver/Src/stm32f4xx_hal_rcc.c ****   assert_param(IS_RCC_PLL(RCC_OscInitStruct->PLL.PLLState));
 480:Platform/STM32F4xx/drivers/STM32F4xx_HAL_Driver/Src/stm32f4xx_hal_rcc.c ****   if ((RCC_OscInitStruct->PLL.PLLState) != RCC_PLL_NONE)
 514              		.loc 1 480 0
 515 02c6 A369     		ldr	r3, [r4, #24]
 516 02c8 002B     		cmp	r3, #0
 517 02ca 5BD0     		beq	.L64
 481:Platform/STM32F4xx/drivers/STM32F4xx_HAL_Driver/Src/stm32f4xx_hal_rcc.c ****   {
ARM GAS  /tmp/ccSv8R8q.s 			page 19


 482:Platform/STM32F4xx/drivers/STM32F4xx_HAL_Driver/Src/stm32f4xx_hal_rcc.c ****     /* Check if the PLL is used as system clock or not */
 483:Platform/STM32F4xx/drivers/STM32F4xx_HAL_Driver/Src/stm32f4xx_hal_rcc.c ****     if(__HAL_RCC_GET_SYSCLK_SOURCE() != RCC_CFGR_SWS_PLL)
 518              		.loc 1 483 0
 519 02cc 304A     		ldr	r2, .L89
 520 02ce 9268     		ldr	r2, [r2, #8]
 521 02d0 02F00C02 		and	r2, r2, #12
 522 02d4 082A     		cmp	r2, #8
 523 02d6 58D0     		beq	.L65
 484:Platform/STM32F4xx/drivers/STM32F4xx_HAL_Driver/Src/stm32f4xx_hal_rcc.c ****     {
 485:Platform/STM32F4xx/drivers/STM32F4xx_HAL_Driver/Src/stm32f4xx_hal_rcc.c ****       if((RCC_OscInitStruct->PLL.PLLState) == RCC_PLL_ON)
 524              		.loc 1 485 0
 525 02d8 022B     		cmp	r3, #2
 526 02da 17D0     		beq	.L83
 486:Platform/STM32F4xx/drivers/STM32F4xx_HAL_Driver/Src/stm32f4xx_hal_rcc.c ****       {
 487:Platform/STM32F4xx/drivers/STM32F4xx_HAL_Driver/Src/stm32f4xx_hal_rcc.c ****         /* Check the parameters */
 488:Platform/STM32F4xx/drivers/STM32F4xx_HAL_Driver/Src/stm32f4xx_hal_rcc.c ****         assert_param(IS_RCC_PLLSOURCE(RCC_OscInitStruct->PLL.PLLSource));
 489:Platform/STM32F4xx/drivers/STM32F4xx_HAL_Driver/Src/stm32f4xx_hal_rcc.c ****         assert_param(IS_RCC_PLLM_VALUE(RCC_OscInitStruct->PLL.PLLM));
 490:Platform/STM32F4xx/drivers/STM32F4xx_HAL_Driver/Src/stm32f4xx_hal_rcc.c ****         assert_param(IS_RCC_PLLN_VALUE(RCC_OscInitStruct->PLL.PLLN));
 491:Platform/STM32F4xx/drivers/STM32F4xx_HAL_Driver/Src/stm32f4xx_hal_rcc.c ****         assert_param(IS_RCC_PLLP_VALUE(RCC_OscInitStruct->PLL.PLLP));
 492:Platform/STM32F4xx/drivers/STM32F4xx_HAL_Driver/Src/stm32f4xx_hal_rcc.c ****         assert_param(IS_RCC_PLLQ_VALUE(RCC_OscInitStruct->PLL.PLLQ));
 493:Platform/STM32F4xx/drivers/STM32F4xx_HAL_Driver/Src/stm32f4xx_hal_rcc.c **** 
 494:Platform/STM32F4xx/drivers/STM32F4xx_HAL_Driver/Src/stm32f4xx_hal_rcc.c ****         /* Disable the main PLL. */
 495:Platform/STM32F4xx/drivers/STM32F4xx_HAL_Driver/Src/stm32f4xx_hal_rcc.c ****         __HAL_RCC_PLL_DISABLE();
 496:Platform/STM32F4xx/drivers/STM32F4xx_HAL_Driver/Src/stm32f4xx_hal_rcc.c **** 
 497:Platform/STM32F4xx/drivers/STM32F4xx_HAL_Driver/Src/stm32f4xx_hal_rcc.c ****         /* Get Start Tick */
 498:Platform/STM32F4xx/drivers/STM32F4xx_HAL_Driver/Src/stm32f4xx_hal_rcc.c ****         tickstart = HAL_GetTick();
 499:Platform/STM32F4xx/drivers/STM32F4xx_HAL_Driver/Src/stm32f4xx_hal_rcc.c **** 
 500:Platform/STM32F4xx/drivers/STM32F4xx_HAL_Driver/Src/stm32f4xx_hal_rcc.c ****         /* Wait till PLL is ready */
 501:Platform/STM32F4xx/drivers/STM32F4xx_HAL_Driver/Src/stm32f4xx_hal_rcc.c ****         while(__HAL_RCC_GET_FLAG(RCC_FLAG_PLLRDY) != RESET)
 502:Platform/STM32F4xx/drivers/STM32F4xx_HAL_Driver/Src/stm32f4xx_hal_rcc.c ****         {
 503:Platform/STM32F4xx/drivers/STM32F4xx_HAL_Driver/Src/stm32f4xx_hal_rcc.c ****           if((HAL_GetTick() - tickstart ) > PLL_TIMEOUT_VALUE)
 504:Platform/STM32F4xx/drivers/STM32F4xx_HAL_Driver/Src/stm32f4xx_hal_rcc.c ****           {
 505:Platform/STM32F4xx/drivers/STM32F4xx_HAL_Driver/Src/stm32f4xx_hal_rcc.c ****             return HAL_TIMEOUT;
 506:Platform/STM32F4xx/drivers/STM32F4xx_HAL_Driver/Src/stm32f4xx_hal_rcc.c ****           }
 507:Platform/STM32F4xx/drivers/STM32F4xx_HAL_Driver/Src/stm32f4xx_hal_rcc.c ****         }
 508:Platform/STM32F4xx/drivers/STM32F4xx_HAL_Driver/Src/stm32f4xx_hal_rcc.c **** 
 509:Platform/STM32F4xx/drivers/STM32F4xx_HAL_Driver/Src/stm32f4xx_hal_rcc.c ****         /* Configure the main PLL clock source, multiplication and division factors. */
 510:Platform/STM32F4xx/drivers/STM32F4xx_HAL_Driver/Src/stm32f4xx_hal_rcc.c ****         WRITE_REG(RCC->PLLCFGR, (RCC_OscInitStruct->PLL.PLLSource                                  
 511:Platform/STM32F4xx/drivers/STM32F4xx_HAL_Driver/Src/stm32f4xx_hal_rcc.c ****                                  RCC_OscInitStruct->PLL.PLLM                                       
 512:Platform/STM32F4xx/drivers/STM32F4xx_HAL_Driver/Src/stm32f4xx_hal_rcc.c ****                                  (RCC_OscInitStruct->PLL.PLLN << RCC_PLLCFGR_PLLN_Pos)             
 513:Platform/STM32F4xx/drivers/STM32F4xx_HAL_Driver/Src/stm32f4xx_hal_rcc.c ****                                  (((RCC_OscInitStruct->PLL.PLLP >> 1U) - 1U) << RCC_PLLCFGR_PLLP_Po
 514:Platform/STM32F4xx/drivers/STM32F4xx_HAL_Driver/Src/stm32f4xx_hal_rcc.c ****                                  (RCC_OscInitStruct->PLL.PLLQ << RCC_PLLCFGR_PLLQ_Pos)));
 515:Platform/STM32F4xx/drivers/STM32F4xx_HAL_Driver/Src/stm32f4xx_hal_rcc.c ****         /* Enable the main PLL. */
 516:Platform/STM32F4xx/drivers/STM32F4xx_HAL_Driver/Src/stm32f4xx_hal_rcc.c ****         __HAL_RCC_PLL_ENABLE();
 517:Platform/STM32F4xx/drivers/STM32F4xx_HAL_Driver/Src/stm32f4xx_hal_rcc.c **** 
 518:Platform/STM32F4xx/drivers/STM32F4xx_HAL_Driver/Src/stm32f4xx_hal_rcc.c ****         /* Get Start Tick */
 519:Platform/STM32F4xx/drivers/STM32F4xx_HAL_Driver/Src/stm32f4xx_hal_rcc.c ****         tickstart = HAL_GetTick();
 520:Platform/STM32F4xx/drivers/STM32F4xx_HAL_Driver/Src/stm32f4xx_hal_rcc.c **** 
 521:Platform/STM32F4xx/drivers/STM32F4xx_HAL_Driver/Src/stm32f4xx_hal_rcc.c ****         /* Wait till PLL is ready */
 522:Platform/STM32F4xx/drivers/STM32F4xx_HAL_Driver/Src/stm32f4xx_hal_rcc.c ****         while(__HAL_RCC_GET_FLAG(RCC_FLAG_PLLRDY) == RESET)
 523:Platform/STM32F4xx/drivers/STM32F4xx_HAL_Driver/Src/stm32f4xx_hal_rcc.c ****         {
 524:Platform/STM32F4xx/drivers/STM32F4xx_HAL_Driver/Src/stm32f4xx_hal_rcc.c ****           if((HAL_GetTick() - tickstart ) > PLL_TIMEOUT_VALUE)
 525:Platform/STM32F4xx/drivers/STM32F4xx_HAL_Driver/Src/stm32f4xx_hal_rcc.c ****           {
 526:Platform/STM32F4xx/drivers/STM32F4xx_HAL_Driver/Src/stm32f4xx_hal_rcc.c ****             return HAL_TIMEOUT;
 527:Platform/STM32F4xx/drivers/STM32F4xx_HAL_Driver/Src/stm32f4xx_hal_rcc.c ****           }
 528:Platform/STM32F4xx/drivers/STM32F4xx_HAL_Driver/Src/stm32f4xx_hal_rcc.c ****         }
 529:Platform/STM32F4xx/drivers/STM32F4xx_HAL_Driver/Src/stm32f4xx_hal_rcc.c ****       }
ARM GAS  /tmp/ccSv8R8q.s 			page 20


 530:Platform/STM32F4xx/drivers/STM32F4xx_HAL_Driver/Src/stm32f4xx_hal_rcc.c ****       else
 531:Platform/STM32F4xx/drivers/STM32F4xx_HAL_Driver/Src/stm32f4xx_hal_rcc.c ****       {
 532:Platform/STM32F4xx/drivers/STM32F4xx_HAL_Driver/Src/stm32f4xx_hal_rcc.c ****         /* Disable the main PLL. */
 533:Platform/STM32F4xx/drivers/STM32F4xx_HAL_Driver/Src/stm32f4xx_hal_rcc.c ****         __HAL_RCC_PLL_DISABLE();
 527              		.loc 1 533 0
 528 02dc 2D4B     		ldr	r3, .L89+4
 529 02de 0022     		movs	r2, #0
 530 02e0 1A60     		str	r2, [r3]
 534:Platform/STM32F4xx/drivers/STM32F4xx_HAL_Driver/Src/stm32f4xx_hal_rcc.c **** 
 535:Platform/STM32F4xx/drivers/STM32F4xx_HAL_Driver/Src/stm32f4xx_hal_rcc.c ****         /* Get Start Tick */
 536:Platform/STM32F4xx/drivers/STM32F4xx_HAL_Driver/Src/stm32f4xx_hal_rcc.c ****         tickstart = HAL_GetTick();
 531              		.loc 1 536 0
 532 02e2 FFF7FEFF 		bl	HAL_GetTick
 533              	.LVL42:
 534 02e6 0446     		mov	r4, r0
 535              	.LVL43:
 536              	.L49:
 537:Platform/STM32F4xx/drivers/STM32F4xx_HAL_Driver/Src/stm32f4xx_hal_rcc.c **** 
 538:Platform/STM32F4xx/drivers/STM32F4xx_HAL_Driver/Src/stm32f4xx_hal_rcc.c ****         /* Wait till PLL is ready */
 539:Platform/STM32F4xx/drivers/STM32F4xx_HAL_Driver/Src/stm32f4xx_hal_rcc.c ****         while(__HAL_RCC_GET_FLAG(RCC_FLAG_PLLRDY) != RESET)
 537              		.loc 1 539 0
 538 02e8 294B     		ldr	r3, .L89
 539 02ea 1B68     		ldr	r3, [r3]
 540 02ec 13F0007F 		tst	r3, #33554432
 541 02f0 42D0     		beq	.L84
 540:Platform/STM32F4xx/drivers/STM32F4xx_HAL_Driver/Src/stm32f4xx_hal_rcc.c ****         {
 541:Platform/STM32F4xx/drivers/STM32F4xx_HAL_Driver/Src/stm32f4xx_hal_rcc.c ****           if((HAL_GetTick() - tickstart ) > PLL_TIMEOUT_VALUE)
 542              		.loc 1 541 0
 543 02f2 FFF7FEFF 		bl	HAL_GetTick
 544              	.LVL44:
 545 02f6 001B     		subs	r0, r0, r4
 546 02f8 0228     		cmp	r0, #2
 547 02fa F5D9     		bls	.L49
 542:Platform/STM32F4xx/drivers/STM32F4xx_HAL_Driver/Src/stm32f4xx_hal_rcc.c ****           {
 543:Platform/STM32F4xx/drivers/STM32F4xx_HAL_Driver/Src/stm32f4xx_hal_rcc.c ****             return HAL_TIMEOUT;
 548              		.loc 1 543 0
 549 02fc 0320     		movs	r0, #3
 550 02fe 42E0     		b	.L3
 551              	.LVL45:
 552              	.L82:
 553              	.LBB4:
 474:Platform/STM32F4xx/drivers/STM32F4xx_HAL_Driver/Src/stm32f4xx_hal_rcc.c ****     }
 554              		.loc 1 474 0
 555 0300 234A     		ldr	r2, .L89
 556 0302 136C     		ldr	r3, [r2, #64]
 557 0304 23F08053 		bic	r3, r3, #268435456
 558 0308 1364     		str	r3, [r2, #64]
 559 030a DCE7     		b	.L30
 560              	.LVL46:
 561              	.L83:
 562              	.LBE4:
 495:Platform/STM32F4xx/drivers/STM32F4xx_HAL_Driver/Src/stm32f4xx_hal_rcc.c **** 
 563              		.loc 1 495 0
 564 030c 214B     		ldr	r3, .L89+4
 565 030e 0022     		movs	r2, #0
 566 0310 1A60     		str	r2, [r3]
 498:Platform/STM32F4xx/drivers/STM32F4xx_HAL_Driver/Src/stm32f4xx_hal_rcc.c **** 
ARM GAS  /tmp/ccSv8R8q.s 			page 21


 567              		.loc 1 498 0
 568 0312 FFF7FEFF 		bl	HAL_GetTick
 569              	.LVL47:
 570 0316 0546     		mov	r5, r0
 571              	.LVL48:
 572              	.L45:
 501:Platform/STM32F4xx/drivers/STM32F4xx_HAL_Driver/Src/stm32f4xx_hal_rcc.c ****         {
 573              		.loc 1 501 0
 574 0318 1D4B     		ldr	r3, .L89
 575 031a 1B68     		ldr	r3, [r3]
 576 031c 13F0007F 		tst	r3, #33554432
 577 0320 06D0     		beq	.L85
 503:Platform/STM32F4xx/drivers/STM32F4xx_HAL_Driver/Src/stm32f4xx_hal_rcc.c ****           {
 578              		.loc 1 503 0
 579 0322 FFF7FEFF 		bl	HAL_GetTick
 580              	.LVL49:
 581 0326 401B     		subs	r0, r0, r5
 582 0328 0228     		cmp	r0, #2
 583 032a F5D9     		bls	.L45
 505:Platform/STM32F4xx/drivers/STM32F4xx_HAL_Driver/Src/stm32f4xx_hal_rcc.c ****           }
 584              		.loc 1 505 0
 585 032c 0320     		movs	r0, #3
 586 032e 2AE0     		b	.L3
 587              	.L85:
 510:Platform/STM32F4xx/drivers/STM32F4xx_HAL_Driver/Src/stm32f4xx_hal_rcc.c ****                                  RCC_OscInitStruct->PLL.PLLM                                       
 588              		.loc 1 510 0
 589 0330 E369     		ldr	r3, [r4, #28]
 590 0332 226A     		ldr	r2, [r4, #32]
 591 0334 1343     		orrs	r3, r3, r2
 592 0336 626A     		ldr	r2, [r4, #36]
 593 0338 43EA8213 		orr	r3, r3, r2, lsl #6
 594 033c A26A     		ldr	r2, [r4, #40]
 595 033e 5208     		lsrs	r2, r2, #1
 596 0340 013A     		subs	r2, r2, #1
 597 0342 43EA0243 		orr	r3, r3, r2, lsl #16
 598 0346 E26A     		ldr	r2, [r4, #44]
 599 0348 43EA0263 		orr	r3, r3, r2, lsl #24
 600 034c 104A     		ldr	r2, .L89
 601 034e 5360     		str	r3, [r2, #4]
 516:Platform/STM32F4xx/drivers/STM32F4xx_HAL_Driver/Src/stm32f4xx_hal_rcc.c **** 
 602              		.loc 1 516 0
 603 0350 104B     		ldr	r3, .L89+4
 604 0352 0122     		movs	r2, #1
 605 0354 1A60     		str	r2, [r3]
 519:Platform/STM32F4xx/drivers/STM32F4xx_HAL_Driver/Src/stm32f4xx_hal_rcc.c **** 
 606              		.loc 1 519 0
 607 0356 FFF7FEFF 		bl	HAL_GetTick
 608              	.LVL50:
 609 035a 0446     		mov	r4, r0
 610              	.LVL51:
 611              	.L47:
 522:Platform/STM32F4xx/drivers/STM32F4xx_HAL_Driver/Src/stm32f4xx_hal_rcc.c ****         {
 612              		.loc 1 522 0
 613 035c 0C4B     		ldr	r3, .L89
 614 035e 1B68     		ldr	r3, [r3]
 615 0360 13F0007F 		tst	r3, #33554432
 616 0364 06D1     		bne	.L86
ARM GAS  /tmp/ccSv8R8q.s 			page 22


 524:Platform/STM32F4xx/drivers/STM32F4xx_HAL_Driver/Src/stm32f4xx_hal_rcc.c ****           {
 617              		.loc 1 524 0
 618 0366 FFF7FEFF 		bl	HAL_GetTick
 619              	.LVL52:
 620 036a 001B     		subs	r0, r0, r4
 621 036c 0228     		cmp	r0, #2
 622 036e F5D9     		bls	.L47
 526:Platform/STM32F4xx/drivers/STM32F4xx_HAL_Driver/Src/stm32f4xx_hal_rcc.c ****           }
 623              		.loc 1 526 0
 624 0370 0320     		movs	r0, #3
 625 0372 08E0     		b	.L3
 626              	.L86:
 544:Platform/STM32F4xx/drivers/STM32F4xx_HAL_Driver/Src/stm32f4xx_hal_rcc.c ****           }
 545:Platform/STM32F4xx/drivers/STM32F4xx_HAL_Driver/Src/stm32f4xx_hal_rcc.c ****         }
 546:Platform/STM32F4xx/drivers/STM32F4xx_HAL_Driver/Src/stm32f4xx_hal_rcc.c ****       }
 547:Platform/STM32F4xx/drivers/STM32F4xx_HAL_Driver/Src/stm32f4xx_hal_rcc.c ****     }
 548:Platform/STM32F4xx/drivers/STM32F4xx_HAL_Driver/Src/stm32f4xx_hal_rcc.c ****     else
 549:Platform/STM32F4xx/drivers/STM32F4xx_HAL_Driver/Src/stm32f4xx_hal_rcc.c ****     {
 550:Platform/STM32F4xx/drivers/STM32F4xx_HAL_Driver/Src/stm32f4xx_hal_rcc.c ****       return HAL_ERROR;
 551:Platform/STM32F4xx/drivers/STM32F4xx_HAL_Driver/Src/stm32f4xx_hal_rcc.c ****     }
 552:Platform/STM32F4xx/drivers/STM32F4xx_HAL_Driver/Src/stm32f4xx_hal_rcc.c ****   }
 553:Platform/STM32F4xx/drivers/STM32F4xx_HAL_Driver/Src/stm32f4xx_hal_rcc.c ****   return HAL_OK;
 627              		.loc 1 553 0
 628 0374 0020     		movs	r0, #0
 629 0376 06E0     		b	.L3
 630              	.L84:
 631 0378 0020     		movs	r0, #0
 632 037a 04E0     		b	.L3
 633              	.LVL53:
 634              	.L51:
 635              	.LCFI2:
 636              		.cfi_def_cfa_offset 0
 637              		.cfi_restore 4
 638              		.cfi_restore 5
 639              		.cfi_restore 6
 640              		.cfi_restore 14
 244:Platform/STM32F4xx/drivers/STM32F4xx_HAL_Driver/Src/stm32f4xx_hal_rcc.c ****   }
 641              		.loc 1 244 0
 642 037c 0120     		movs	r0, #1
 643              	.LVL54:
 554:Platform/STM32F4xx/drivers/STM32F4xx_HAL_Driver/Src/stm32f4xx_hal_rcc.c **** }
 644              		.loc 1 554 0
 645 037e 7047     		bx	lr
 646              	.LVL55:
 647              	.L76:
 648              	.LCFI3:
 649              		.cfi_def_cfa_offset 24
 650              		.cfi_offset 4, -16
 651              		.cfi_offset 5, -12
 652              		.cfi_offset 6, -8
 653              		.cfi_offset 14, -4
 260:Platform/STM32F4xx/drivers/STM32F4xx_HAL_Driver/Src/stm32f4xx_hal_rcc.c ****       }
 654              		.loc 1 260 0
 655 0380 0120     		movs	r0, #1
 656              	.LVL56:
 657 0382 00E0     		b	.L3
 658              	.L64:
ARM GAS  /tmp/ccSv8R8q.s 			page 23


 553:Platform/STM32F4xx/drivers/STM32F4xx_HAL_Driver/Src/stm32f4xx_hal_rcc.c **** }
 659              		.loc 1 553 0
 660 0384 0020     		movs	r0, #0
 661              	.LVL57:
 662              	.L3:
 663              		.loc 1 554 0
 664 0386 02B0     		add	sp, sp, #8
 665              	.LCFI4:
 666              		.cfi_remember_state
 667              		.cfi_def_cfa_offset 16
 668              		@ sp needed
 669 0388 70BD     		pop	{r4, r5, r6, pc}
 670              	.LVL58:
 671              	.L65:
 672              	.LCFI5:
 673              		.cfi_restore_state
 550:Platform/STM32F4xx/drivers/STM32F4xx_HAL_Driver/Src/stm32f4xx_hal_rcc.c ****     }
 674              		.loc 1 550 0
 675 038a 0120     		movs	r0, #1
 676 038c FBE7     		b	.L3
 677              	.L90:
 678 038e 00BF     		.align	2
 679              	.L89:
 680 0390 00380240 		.word	1073887232
 681 0394 60004742 		.word	1111949408
 682              		.cfi_endproc
 683              	.LFE127:
 685              		.section	.text.HAL_RCC_MCOConfig,"ax",%progbits
 686              		.align	1
 687              		.global	HAL_RCC_MCOConfig
 688              		.syntax unified
 689              		.thumb
 690              		.thumb_func
 691              		.fpu fpv4-sp-d16
 693              	HAL_RCC_MCOConfig:
 694              	.LFB129:
 555:Platform/STM32F4xx/drivers/STM32F4xx_HAL_Driver/Src/stm32f4xx_hal_rcc.c **** 
 556:Platform/STM32F4xx/drivers/STM32F4xx_HAL_Driver/Src/stm32f4xx_hal_rcc.c **** /**
 557:Platform/STM32F4xx/drivers/STM32F4xx_HAL_Driver/Src/stm32f4xx_hal_rcc.c ****   * @brief  Initializes the CPU, AHB and APB busses clocks according to the specified
 558:Platform/STM32F4xx/drivers/STM32F4xx_HAL_Driver/Src/stm32f4xx_hal_rcc.c ****   *         parameters in the RCC_ClkInitStruct.
 559:Platform/STM32F4xx/drivers/STM32F4xx_HAL_Driver/Src/stm32f4xx_hal_rcc.c ****   * @param  RCC_ClkInitStruct pointer to an RCC_OscInitTypeDef structure that
 560:Platform/STM32F4xx/drivers/STM32F4xx_HAL_Driver/Src/stm32f4xx_hal_rcc.c ****   *         contains the configuration information for the RCC peripheral.
 561:Platform/STM32F4xx/drivers/STM32F4xx_HAL_Driver/Src/stm32f4xx_hal_rcc.c ****   * @param  FLatency FLASH Latency, this parameter depend on device selected
 562:Platform/STM32F4xx/drivers/STM32F4xx_HAL_Driver/Src/stm32f4xx_hal_rcc.c ****   *
 563:Platform/STM32F4xx/drivers/STM32F4xx_HAL_Driver/Src/stm32f4xx_hal_rcc.c ****   * @note   The SystemCoreClock CMSIS variable is used to store System Clock Frequency
 564:Platform/STM32F4xx/drivers/STM32F4xx_HAL_Driver/Src/stm32f4xx_hal_rcc.c ****   *         and updated by HAL_RCC_GetHCLKFreq() function called within this function
 565:Platform/STM32F4xx/drivers/STM32F4xx_HAL_Driver/Src/stm32f4xx_hal_rcc.c ****   *
 566:Platform/STM32F4xx/drivers/STM32F4xx_HAL_Driver/Src/stm32f4xx_hal_rcc.c ****   * @note   The HSI is used (enabled by hardware) as system clock source after
 567:Platform/STM32F4xx/drivers/STM32F4xx_HAL_Driver/Src/stm32f4xx_hal_rcc.c ****   *         startup from Reset, wake-up from STOP and STANDBY mode, or in case
 568:Platform/STM32F4xx/drivers/STM32F4xx_HAL_Driver/Src/stm32f4xx_hal_rcc.c ****   *         of failure of the HSE used directly or indirectly as system clock
 569:Platform/STM32F4xx/drivers/STM32F4xx_HAL_Driver/Src/stm32f4xx_hal_rcc.c ****   *         (if the Clock Security System CSS is enabled).
 570:Platform/STM32F4xx/drivers/STM32F4xx_HAL_Driver/Src/stm32f4xx_hal_rcc.c ****   *
 571:Platform/STM32F4xx/drivers/STM32F4xx_HAL_Driver/Src/stm32f4xx_hal_rcc.c ****   * @note   A switch from one clock source to another occurs only if the target
 572:Platform/STM32F4xx/drivers/STM32F4xx_HAL_Driver/Src/stm32f4xx_hal_rcc.c ****   *         clock source is ready (clock stable after startup delay or PLL locked).
 573:Platform/STM32F4xx/drivers/STM32F4xx_HAL_Driver/Src/stm32f4xx_hal_rcc.c ****   *         If a clock source which is not yet ready is selected, the switch will
 574:Platform/STM32F4xx/drivers/STM32F4xx_HAL_Driver/Src/stm32f4xx_hal_rcc.c ****   *         occur when the clock source will be ready.
 575:Platform/STM32F4xx/drivers/STM32F4xx_HAL_Driver/Src/stm32f4xx_hal_rcc.c ****   *
ARM GAS  /tmp/ccSv8R8q.s 			page 24


 576:Platform/STM32F4xx/drivers/STM32F4xx_HAL_Driver/Src/stm32f4xx_hal_rcc.c ****   * @note   Depending on the device voltage range, the software has to set correctly
 577:Platform/STM32F4xx/drivers/STM32F4xx_HAL_Driver/Src/stm32f4xx_hal_rcc.c ****   *         HPRE[3:0] bits to ensure that HCLK not exceed the maximum allowed frequency
 578:Platform/STM32F4xx/drivers/STM32F4xx_HAL_Driver/Src/stm32f4xx_hal_rcc.c ****   *         (for more details refer to section above "Initialization/de-initialization functions")
 579:Platform/STM32F4xx/drivers/STM32F4xx_HAL_Driver/Src/stm32f4xx_hal_rcc.c ****   * @retval None
 580:Platform/STM32F4xx/drivers/STM32F4xx_HAL_Driver/Src/stm32f4xx_hal_rcc.c ****   */
 581:Platform/STM32F4xx/drivers/STM32F4xx_HAL_Driver/Src/stm32f4xx_hal_rcc.c **** HAL_StatusTypeDef HAL_RCC_ClockConfig(RCC_ClkInitTypeDef  *RCC_ClkInitStruct, uint32_t FLatency)
 582:Platform/STM32F4xx/drivers/STM32F4xx_HAL_Driver/Src/stm32f4xx_hal_rcc.c **** {
 583:Platform/STM32F4xx/drivers/STM32F4xx_HAL_Driver/Src/stm32f4xx_hal_rcc.c ****   uint32_t tickstart;
 584:Platform/STM32F4xx/drivers/STM32F4xx_HAL_Driver/Src/stm32f4xx_hal_rcc.c **** 
 585:Platform/STM32F4xx/drivers/STM32F4xx_HAL_Driver/Src/stm32f4xx_hal_rcc.c ****   /* Check Null pointer */
 586:Platform/STM32F4xx/drivers/STM32F4xx_HAL_Driver/Src/stm32f4xx_hal_rcc.c ****   if(RCC_ClkInitStruct == NULL)
 587:Platform/STM32F4xx/drivers/STM32F4xx_HAL_Driver/Src/stm32f4xx_hal_rcc.c ****   {
 588:Platform/STM32F4xx/drivers/STM32F4xx_HAL_Driver/Src/stm32f4xx_hal_rcc.c ****     return HAL_ERROR;
 589:Platform/STM32F4xx/drivers/STM32F4xx_HAL_Driver/Src/stm32f4xx_hal_rcc.c ****   }
 590:Platform/STM32F4xx/drivers/STM32F4xx_HAL_Driver/Src/stm32f4xx_hal_rcc.c **** 
 591:Platform/STM32F4xx/drivers/STM32F4xx_HAL_Driver/Src/stm32f4xx_hal_rcc.c ****   /* Check the parameters */
 592:Platform/STM32F4xx/drivers/STM32F4xx_HAL_Driver/Src/stm32f4xx_hal_rcc.c ****   assert_param(IS_RCC_CLOCKTYPE(RCC_ClkInitStruct->ClockType));
 593:Platform/STM32F4xx/drivers/STM32F4xx_HAL_Driver/Src/stm32f4xx_hal_rcc.c ****   assert_param(IS_FLASH_LATENCY(FLatency));
 594:Platform/STM32F4xx/drivers/STM32F4xx_HAL_Driver/Src/stm32f4xx_hal_rcc.c **** 
 595:Platform/STM32F4xx/drivers/STM32F4xx_HAL_Driver/Src/stm32f4xx_hal_rcc.c ****   /* To correctly read data from FLASH memory, the number of wait states (LATENCY)
 596:Platform/STM32F4xx/drivers/STM32F4xx_HAL_Driver/Src/stm32f4xx_hal_rcc.c ****     must be correctly programmed according to the frequency of the CPU clock
 597:Platform/STM32F4xx/drivers/STM32F4xx_HAL_Driver/Src/stm32f4xx_hal_rcc.c ****     (HCLK) and the supply voltage of the device. */
 598:Platform/STM32F4xx/drivers/STM32F4xx_HAL_Driver/Src/stm32f4xx_hal_rcc.c **** 
 599:Platform/STM32F4xx/drivers/STM32F4xx_HAL_Driver/Src/stm32f4xx_hal_rcc.c ****   /* Increasing the number of wait states because of higher CPU frequency */
 600:Platform/STM32F4xx/drivers/STM32F4xx_HAL_Driver/Src/stm32f4xx_hal_rcc.c ****   if(FLatency > __HAL_FLASH_GET_LATENCY())
 601:Platform/STM32F4xx/drivers/STM32F4xx_HAL_Driver/Src/stm32f4xx_hal_rcc.c ****   {
 602:Platform/STM32F4xx/drivers/STM32F4xx_HAL_Driver/Src/stm32f4xx_hal_rcc.c ****     /* Program the new number of wait states to the LATENCY bits in the FLASH_ACR register */
 603:Platform/STM32F4xx/drivers/STM32F4xx_HAL_Driver/Src/stm32f4xx_hal_rcc.c ****     __HAL_FLASH_SET_LATENCY(FLatency);
 604:Platform/STM32F4xx/drivers/STM32F4xx_HAL_Driver/Src/stm32f4xx_hal_rcc.c **** 
 605:Platform/STM32F4xx/drivers/STM32F4xx_HAL_Driver/Src/stm32f4xx_hal_rcc.c ****     /* Check that the new number of wait states is taken into account to access the Flash
 606:Platform/STM32F4xx/drivers/STM32F4xx_HAL_Driver/Src/stm32f4xx_hal_rcc.c ****     memory by reading the FLASH_ACR register */
 607:Platform/STM32F4xx/drivers/STM32F4xx_HAL_Driver/Src/stm32f4xx_hal_rcc.c ****     if(__HAL_FLASH_GET_LATENCY() != FLatency)
 608:Platform/STM32F4xx/drivers/STM32F4xx_HAL_Driver/Src/stm32f4xx_hal_rcc.c ****     {
 609:Platform/STM32F4xx/drivers/STM32F4xx_HAL_Driver/Src/stm32f4xx_hal_rcc.c ****       return HAL_ERROR;
 610:Platform/STM32F4xx/drivers/STM32F4xx_HAL_Driver/Src/stm32f4xx_hal_rcc.c ****     }
 611:Platform/STM32F4xx/drivers/STM32F4xx_HAL_Driver/Src/stm32f4xx_hal_rcc.c ****   }
 612:Platform/STM32F4xx/drivers/STM32F4xx_HAL_Driver/Src/stm32f4xx_hal_rcc.c **** 
 613:Platform/STM32F4xx/drivers/STM32F4xx_HAL_Driver/Src/stm32f4xx_hal_rcc.c ****   /*-------------------------- HCLK Configuration --------------------------*/
 614:Platform/STM32F4xx/drivers/STM32F4xx_HAL_Driver/Src/stm32f4xx_hal_rcc.c ****   if(((RCC_ClkInitStruct->ClockType) & RCC_CLOCKTYPE_HCLK) == RCC_CLOCKTYPE_HCLK)
 615:Platform/STM32F4xx/drivers/STM32F4xx_HAL_Driver/Src/stm32f4xx_hal_rcc.c ****   {
 616:Platform/STM32F4xx/drivers/STM32F4xx_HAL_Driver/Src/stm32f4xx_hal_rcc.c ****     /* Set the highest APBx dividers in order to ensure that we do not go through
 617:Platform/STM32F4xx/drivers/STM32F4xx_HAL_Driver/Src/stm32f4xx_hal_rcc.c ****        a non-spec phase whatever we decrease or increase HCLK. */
 618:Platform/STM32F4xx/drivers/STM32F4xx_HAL_Driver/Src/stm32f4xx_hal_rcc.c ****     if(((RCC_ClkInitStruct->ClockType) & RCC_CLOCKTYPE_PCLK1) == RCC_CLOCKTYPE_PCLK1)
 619:Platform/STM32F4xx/drivers/STM32F4xx_HAL_Driver/Src/stm32f4xx_hal_rcc.c ****     {
 620:Platform/STM32F4xx/drivers/STM32F4xx_HAL_Driver/Src/stm32f4xx_hal_rcc.c ****       MODIFY_REG(RCC->CFGR, RCC_CFGR_PPRE1, RCC_HCLK_DIV16);
 621:Platform/STM32F4xx/drivers/STM32F4xx_HAL_Driver/Src/stm32f4xx_hal_rcc.c ****     }
 622:Platform/STM32F4xx/drivers/STM32F4xx_HAL_Driver/Src/stm32f4xx_hal_rcc.c **** 
 623:Platform/STM32F4xx/drivers/STM32F4xx_HAL_Driver/Src/stm32f4xx_hal_rcc.c ****     if(((RCC_ClkInitStruct->ClockType) & RCC_CLOCKTYPE_PCLK2) == RCC_CLOCKTYPE_PCLK2)
 624:Platform/STM32F4xx/drivers/STM32F4xx_HAL_Driver/Src/stm32f4xx_hal_rcc.c ****     {
 625:Platform/STM32F4xx/drivers/STM32F4xx_HAL_Driver/Src/stm32f4xx_hal_rcc.c ****       MODIFY_REG(RCC->CFGR, RCC_CFGR_PPRE2, (RCC_HCLK_DIV16 << 3));
 626:Platform/STM32F4xx/drivers/STM32F4xx_HAL_Driver/Src/stm32f4xx_hal_rcc.c ****     }
 627:Platform/STM32F4xx/drivers/STM32F4xx_HAL_Driver/Src/stm32f4xx_hal_rcc.c **** 
 628:Platform/STM32F4xx/drivers/STM32F4xx_HAL_Driver/Src/stm32f4xx_hal_rcc.c ****     assert_param(IS_RCC_HCLK(RCC_ClkInitStruct->AHBCLKDivider));
 629:Platform/STM32F4xx/drivers/STM32F4xx_HAL_Driver/Src/stm32f4xx_hal_rcc.c ****     MODIFY_REG(RCC->CFGR, RCC_CFGR_HPRE, RCC_ClkInitStruct->AHBCLKDivider);
 630:Platform/STM32F4xx/drivers/STM32F4xx_HAL_Driver/Src/stm32f4xx_hal_rcc.c ****   }
 631:Platform/STM32F4xx/drivers/STM32F4xx_HAL_Driver/Src/stm32f4xx_hal_rcc.c **** 
 632:Platform/STM32F4xx/drivers/STM32F4xx_HAL_Driver/Src/stm32f4xx_hal_rcc.c ****   /*------------------------- SYSCLK Configuration ---------------------------*/
ARM GAS  /tmp/ccSv8R8q.s 			page 25


 633:Platform/STM32F4xx/drivers/STM32F4xx_HAL_Driver/Src/stm32f4xx_hal_rcc.c ****   if(((RCC_ClkInitStruct->ClockType) & RCC_CLOCKTYPE_SYSCLK) == RCC_CLOCKTYPE_SYSCLK)
 634:Platform/STM32F4xx/drivers/STM32F4xx_HAL_Driver/Src/stm32f4xx_hal_rcc.c ****   {
 635:Platform/STM32F4xx/drivers/STM32F4xx_HAL_Driver/Src/stm32f4xx_hal_rcc.c ****     assert_param(IS_RCC_SYSCLKSOURCE(RCC_ClkInitStruct->SYSCLKSource));
 636:Platform/STM32F4xx/drivers/STM32F4xx_HAL_Driver/Src/stm32f4xx_hal_rcc.c **** 
 637:Platform/STM32F4xx/drivers/STM32F4xx_HAL_Driver/Src/stm32f4xx_hal_rcc.c ****     /* HSE is selected as System Clock Source */
 638:Platform/STM32F4xx/drivers/STM32F4xx_HAL_Driver/Src/stm32f4xx_hal_rcc.c ****     if(RCC_ClkInitStruct->SYSCLKSource == RCC_SYSCLKSOURCE_HSE)
 639:Platform/STM32F4xx/drivers/STM32F4xx_HAL_Driver/Src/stm32f4xx_hal_rcc.c ****     {
 640:Platform/STM32F4xx/drivers/STM32F4xx_HAL_Driver/Src/stm32f4xx_hal_rcc.c ****       /* Check the HSE ready flag */
 641:Platform/STM32F4xx/drivers/STM32F4xx_HAL_Driver/Src/stm32f4xx_hal_rcc.c ****       if(__HAL_RCC_GET_FLAG(RCC_FLAG_HSERDY) == RESET)
 642:Platform/STM32F4xx/drivers/STM32F4xx_HAL_Driver/Src/stm32f4xx_hal_rcc.c ****       {
 643:Platform/STM32F4xx/drivers/STM32F4xx_HAL_Driver/Src/stm32f4xx_hal_rcc.c ****         return HAL_ERROR;
 644:Platform/STM32F4xx/drivers/STM32F4xx_HAL_Driver/Src/stm32f4xx_hal_rcc.c ****       }
 645:Platform/STM32F4xx/drivers/STM32F4xx_HAL_Driver/Src/stm32f4xx_hal_rcc.c ****     }
 646:Platform/STM32F4xx/drivers/STM32F4xx_HAL_Driver/Src/stm32f4xx_hal_rcc.c ****     /* PLL is selected as System Clock Source */
 647:Platform/STM32F4xx/drivers/STM32F4xx_HAL_Driver/Src/stm32f4xx_hal_rcc.c ****     else if((RCC_ClkInitStruct->SYSCLKSource == RCC_SYSCLKSOURCE_PLLCLK)   ||
 648:Platform/STM32F4xx/drivers/STM32F4xx_HAL_Driver/Src/stm32f4xx_hal_rcc.c ****             (RCC_ClkInitStruct->SYSCLKSource == RCC_SYSCLKSOURCE_PLLRCLK))
 649:Platform/STM32F4xx/drivers/STM32F4xx_HAL_Driver/Src/stm32f4xx_hal_rcc.c ****     {
 650:Platform/STM32F4xx/drivers/STM32F4xx_HAL_Driver/Src/stm32f4xx_hal_rcc.c ****       /* Check the PLL ready flag */
 651:Platform/STM32F4xx/drivers/STM32F4xx_HAL_Driver/Src/stm32f4xx_hal_rcc.c ****       if(__HAL_RCC_GET_FLAG(RCC_FLAG_PLLRDY) == RESET)
 652:Platform/STM32F4xx/drivers/STM32F4xx_HAL_Driver/Src/stm32f4xx_hal_rcc.c ****       {
 653:Platform/STM32F4xx/drivers/STM32F4xx_HAL_Driver/Src/stm32f4xx_hal_rcc.c ****         return HAL_ERROR;
 654:Platform/STM32F4xx/drivers/STM32F4xx_HAL_Driver/Src/stm32f4xx_hal_rcc.c ****       }
 655:Platform/STM32F4xx/drivers/STM32F4xx_HAL_Driver/Src/stm32f4xx_hal_rcc.c ****     }
 656:Platform/STM32F4xx/drivers/STM32F4xx_HAL_Driver/Src/stm32f4xx_hal_rcc.c ****     /* HSI is selected as System Clock Source */
 657:Platform/STM32F4xx/drivers/STM32F4xx_HAL_Driver/Src/stm32f4xx_hal_rcc.c ****     else
 658:Platform/STM32F4xx/drivers/STM32F4xx_HAL_Driver/Src/stm32f4xx_hal_rcc.c ****     {
 659:Platform/STM32F4xx/drivers/STM32F4xx_HAL_Driver/Src/stm32f4xx_hal_rcc.c ****       /* Check the HSI ready flag */
 660:Platform/STM32F4xx/drivers/STM32F4xx_HAL_Driver/Src/stm32f4xx_hal_rcc.c ****       if(__HAL_RCC_GET_FLAG(RCC_FLAG_HSIRDY) == RESET)
 661:Platform/STM32F4xx/drivers/STM32F4xx_HAL_Driver/Src/stm32f4xx_hal_rcc.c ****       {
 662:Platform/STM32F4xx/drivers/STM32F4xx_HAL_Driver/Src/stm32f4xx_hal_rcc.c ****         return HAL_ERROR;
 663:Platform/STM32F4xx/drivers/STM32F4xx_HAL_Driver/Src/stm32f4xx_hal_rcc.c ****       }
 664:Platform/STM32F4xx/drivers/STM32F4xx_HAL_Driver/Src/stm32f4xx_hal_rcc.c ****     }
 665:Platform/STM32F4xx/drivers/STM32F4xx_HAL_Driver/Src/stm32f4xx_hal_rcc.c **** 
 666:Platform/STM32F4xx/drivers/STM32F4xx_HAL_Driver/Src/stm32f4xx_hal_rcc.c ****     __HAL_RCC_SYSCLK_CONFIG(RCC_ClkInitStruct->SYSCLKSource);
 667:Platform/STM32F4xx/drivers/STM32F4xx_HAL_Driver/Src/stm32f4xx_hal_rcc.c **** 
 668:Platform/STM32F4xx/drivers/STM32F4xx_HAL_Driver/Src/stm32f4xx_hal_rcc.c ****     /* Get Start Tick */
 669:Platform/STM32F4xx/drivers/STM32F4xx_HAL_Driver/Src/stm32f4xx_hal_rcc.c ****     tickstart = HAL_GetTick();
 670:Platform/STM32F4xx/drivers/STM32F4xx_HAL_Driver/Src/stm32f4xx_hal_rcc.c **** 
 671:Platform/STM32F4xx/drivers/STM32F4xx_HAL_Driver/Src/stm32f4xx_hal_rcc.c ****     while (__HAL_RCC_GET_SYSCLK_SOURCE() != (RCC_ClkInitStruct->SYSCLKSource << RCC_CFGR_SWS_Pos))
 672:Platform/STM32F4xx/drivers/STM32F4xx_HAL_Driver/Src/stm32f4xx_hal_rcc.c ****     {
 673:Platform/STM32F4xx/drivers/STM32F4xx_HAL_Driver/Src/stm32f4xx_hal_rcc.c ****       if ((HAL_GetTick() - tickstart) > CLOCKSWITCH_TIMEOUT_VALUE)
 674:Platform/STM32F4xx/drivers/STM32F4xx_HAL_Driver/Src/stm32f4xx_hal_rcc.c ****       {
 675:Platform/STM32F4xx/drivers/STM32F4xx_HAL_Driver/Src/stm32f4xx_hal_rcc.c ****         return HAL_TIMEOUT;
 676:Platform/STM32F4xx/drivers/STM32F4xx_HAL_Driver/Src/stm32f4xx_hal_rcc.c ****       }
 677:Platform/STM32F4xx/drivers/STM32F4xx_HAL_Driver/Src/stm32f4xx_hal_rcc.c ****     }
 678:Platform/STM32F4xx/drivers/STM32F4xx_HAL_Driver/Src/stm32f4xx_hal_rcc.c ****   }
 679:Platform/STM32F4xx/drivers/STM32F4xx_HAL_Driver/Src/stm32f4xx_hal_rcc.c **** 
 680:Platform/STM32F4xx/drivers/STM32F4xx_HAL_Driver/Src/stm32f4xx_hal_rcc.c ****   /* Decreasing the number of wait states because of lower CPU frequency */
 681:Platform/STM32F4xx/drivers/STM32F4xx_HAL_Driver/Src/stm32f4xx_hal_rcc.c ****   if(FLatency < __HAL_FLASH_GET_LATENCY())
 682:Platform/STM32F4xx/drivers/STM32F4xx_HAL_Driver/Src/stm32f4xx_hal_rcc.c ****   {
 683:Platform/STM32F4xx/drivers/STM32F4xx_HAL_Driver/Src/stm32f4xx_hal_rcc.c ****      /* Program the new number of wait states to the LATENCY bits in the FLASH_ACR register */
 684:Platform/STM32F4xx/drivers/STM32F4xx_HAL_Driver/Src/stm32f4xx_hal_rcc.c ****     __HAL_FLASH_SET_LATENCY(FLatency);
 685:Platform/STM32F4xx/drivers/STM32F4xx_HAL_Driver/Src/stm32f4xx_hal_rcc.c **** 
 686:Platform/STM32F4xx/drivers/STM32F4xx_HAL_Driver/Src/stm32f4xx_hal_rcc.c ****     /* Check that the new number of wait states is taken into account to access the Flash
 687:Platform/STM32F4xx/drivers/STM32F4xx_HAL_Driver/Src/stm32f4xx_hal_rcc.c ****     memory by reading the FLASH_ACR register */
 688:Platform/STM32F4xx/drivers/STM32F4xx_HAL_Driver/Src/stm32f4xx_hal_rcc.c ****     if(__HAL_FLASH_GET_LATENCY() != FLatency)
 689:Platform/STM32F4xx/drivers/STM32F4xx_HAL_Driver/Src/stm32f4xx_hal_rcc.c ****     {
ARM GAS  /tmp/ccSv8R8q.s 			page 26


 690:Platform/STM32F4xx/drivers/STM32F4xx_HAL_Driver/Src/stm32f4xx_hal_rcc.c ****       return HAL_ERROR;
 691:Platform/STM32F4xx/drivers/STM32F4xx_HAL_Driver/Src/stm32f4xx_hal_rcc.c ****     }
 692:Platform/STM32F4xx/drivers/STM32F4xx_HAL_Driver/Src/stm32f4xx_hal_rcc.c ****   }
 693:Platform/STM32F4xx/drivers/STM32F4xx_HAL_Driver/Src/stm32f4xx_hal_rcc.c **** 
 694:Platform/STM32F4xx/drivers/STM32F4xx_HAL_Driver/Src/stm32f4xx_hal_rcc.c ****   /*-------------------------- PCLK1 Configuration ---------------------------*/
 695:Platform/STM32F4xx/drivers/STM32F4xx_HAL_Driver/Src/stm32f4xx_hal_rcc.c ****   if(((RCC_ClkInitStruct->ClockType) & RCC_CLOCKTYPE_PCLK1) == RCC_CLOCKTYPE_PCLK1)
 696:Platform/STM32F4xx/drivers/STM32F4xx_HAL_Driver/Src/stm32f4xx_hal_rcc.c ****   {
 697:Platform/STM32F4xx/drivers/STM32F4xx_HAL_Driver/Src/stm32f4xx_hal_rcc.c ****     assert_param(IS_RCC_PCLK(RCC_ClkInitStruct->APB1CLKDivider));
 698:Platform/STM32F4xx/drivers/STM32F4xx_HAL_Driver/Src/stm32f4xx_hal_rcc.c ****     MODIFY_REG(RCC->CFGR, RCC_CFGR_PPRE1, RCC_ClkInitStruct->APB1CLKDivider);
 699:Platform/STM32F4xx/drivers/STM32F4xx_HAL_Driver/Src/stm32f4xx_hal_rcc.c ****   }
 700:Platform/STM32F4xx/drivers/STM32F4xx_HAL_Driver/Src/stm32f4xx_hal_rcc.c **** 
 701:Platform/STM32F4xx/drivers/STM32F4xx_HAL_Driver/Src/stm32f4xx_hal_rcc.c ****   /*-------------------------- PCLK2 Configuration ---------------------------*/
 702:Platform/STM32F4xx/drivers/STM32F4xx_HAL_Driver/Src/stm32f4xx_hal_rcc.c ****   if(((RCC_ClkInitStruct->ClockType) & RCC_CLOCKTYPE_PCLK2) == RCC_CLOCKTYPE_PCLK2)
 703:Platform/STM32F4xx/drivers/STM32F4xx_HAL_Driver/Src/stm32f4xx_hal_rcc.c ****   {
 704:Platform/STM32F4xx/drivers/STM32F4xx_HAL_Driver/Src/stm32f4xx_hal_rcc.c ****     assert_param(IS_RCC_PCLK(RCC_ClkInitStruct->APB2CLKDivider));
 705:Platform/STM32F4xx/drivers/STM32F4xx_HAL_Driver/Src/stm32f4xx_hal_rcc.c ****     MODIFY_REG(RCC->CFGR, RCC_CFGR_PPRE2, ((RCC_ClkInitStruct->APB2CLKDivider) << 3U));
 706:Platform/STM32F4xx/drivers/STM32F4xx_HAL_Driver/Src/stm32f4xx_hal_rcc.c ****   }
 707:Platform/STM32F4xx/drivers/STM32F4xx_HAL_Driver/Src/stm32f4xx_hal_rcc.c **** 
 708:Platform/STM32F4xx/drivers/STM32F4xx_HAL_Driver/Src/stm32f4xx_hal_rcc.c ****   /* Update the SystemCoreClock global variable */
 709:Platform/STM32F4xx/drivers/STM32F4xx_HAL_Driver/Src/stm32f4xx_hal_rcc.c ****   SystemCoreClock = HAL_RCC_GetSysClockFreq() >> AHBPrescTable[(RCC->CFGR & RCC_CFGR_HPRE)>> RCC_CF
 710:Platform/STM32F4xx/drivers/STM32F4xx_HAL_Driver/Src/stm32f4xx_hal_rcc.c **** 
 711:Platform/STM32F4xx/drivers/STM32F4xx_HAL_Driver/Src/stm32f4xx_hal_rcc.c ****   /* Configure the source of time base considering new system clocks settings */
 712:Platform/STM32F4xx/drivers/STM32F4xx_HAL_Driver/Src/stm32f4xx_hal_rcc.c ****   HAL_InitTick (TICK_INT_PRIORITY);
 713:Platform/STM32F4xx/drivers/STM32F4xx_HAL_Driver/Src/stm32f4xx_hal_rcc.c **** 
 714:Platform/STM32F4xx/drivers/STM32F4xx_HAL_Driver/Src/stm32f4xx_hal_rcc.c ****   return HAL_OK;
 715:Platform/STM32F4xx/drivers/STM32F4xx_HAL_Driver/Src/stm32f4xx_hal_rcc.c **** }
 716:Platform/STM32F4xx/drivers/STM32F4xx_HAL_Driver/Src/stm32f4xx_hal_rcc.c **** 
 717:Platform/STM32F4xx/drivers/STM32F4xx_HAL_Driver/Src/stm32f4xx_hal_rcc.c **** /**
 718:Platform/STM32F4xx/drivers/STM32F4xx_HAL_Driver/Src/stm32f4xx_hal_rcc.c ****   * @}
 719:Platform/STM32F4xx/drivers/STM32F4xx_HAL_Driver/Src/stm32f4xx_hal_rcc.c ****   */
 720:Platform/STM32F4xx/drivers/STM32F4xx_HAL_Driver/Src/stm32f4xx_hal_rcc.c **** 
 721:Platform/STM32F4xx/drivers/STM32F4xx_HAL_Driver/Src/stm32f4xx_hal_rcc.c **** /** @defgroup RCC_Exported_Functions_Group2 Peripheral Control functions
 722:Platform/STM32F4xx/drivers/STM32F4xx_HAL_Driver/Src/stm32f4xx_hal_rcc.c ****  *  @brief   RCC clocks control functions
 723:Platform/STM32F4xx/drivers/STM32F4xx_HAL_Driver/Src/stm32f4xx_hal_rcc.c ****  *
 724:Platform/STM32F4xx/drivers/STM32F4xx_HAL_Driver/Src/stm32f4xx_hal_rcc.c **** @verbatim
 725:Platform/STM32F4xx/drivers/STM32F4xx_HAL_Driver/Src/stm32f4xx_hal_rcc.c ****  ===============================================================================
 726:Platform/STM32F4xx/drivers/STM32F4xx_HAL_Driver/Src/stm32f4xx_hal_rcc.c ****                       ##### Peripheral Control functions #####
 727:Platform/STM32F4xx/drivers/STM32F4xx_HAL_Driver/Src/stm32f4xx_hal_rcc.c ****  ===============================================================================
 728:Platform/STM32F4xx/drivers/STM32F4xx_HAL_Driver/Src/stm32f4xx_hal_rcc.c ****     [..]
 729:Platform/STM32F4xx/drivers/STM32F4xx_HAL_Driver/Src/stm32f4xx_hal_rcc.c ****     This subsection provides a set of functions allowing to control the RCC Clocks
 730:Platform/STM32F4xx/drivers/STM32F4xx_HAL_Driver/Src/stm32f4xx_hal_rcc.c ****     frequencies.
 731:Platform/STM32F4xx/drivers/STM32F4xx_HAL_Driver/Src/stm32f4xx_hal_rcc.c **** 
 732:Platform/STM32F4xx/drivers/STM32F4xx_HAL_Driver/Src/stm32f4xx_hal_rcc.c **** @endverbatim
 733:Platform/STM32F4xx/drivers/STM32F4xx_HAL_Driver/Src/stm32f4xx_hal_rcc.c ****   * @{
 734:Platform/STM32F4xx/drivers/STM32F4xx_HAL_Driver/Src/stm32f4xx_hal_rcc.c ****   */
 735:Platform/STM32F4xx/drivers/STM32F4xx_HAL_Driver/Src/stm32f4xx_hal_rcc.c **** 
 736:Platform/STM32F4xx/drivers/STM32F4xx_HAL_Driver/Src/stm32f4xx_hal_rcc.c **** /**
 737:Platform/STM32F4xx/drivers/STM32F4xx_HAL_Driver/Src/stm32f4xx_hal_rcc.c ****   * @brief  Selects the clock source to output on MCO1 pin(PA8) or on MCO2 pin(PC9).
 738:Platform/STM32F4xx/drivers/STM32F4xx_HAL_Driver/Src/stm32f4xx_hal_rcc.c ****   * @note   PA8/PC9 should be configured in alternate function mode.
 739:Platform/STM32F4xx/drivers/STM32F4xx_HAL_Driver/Src/stm32f4xx_hal_rcc.c ****   * @param  RCC_MCOx specifies the output direction for the clock source.
 740:Platform/STM32F4xx/drivers/STM32F4xx_HAL_Driver/Src/stm32f4xx_hal_rcc.c ****   *          This parameter can be one of the following values:
 741:Platform/STM32F4xx/drivers/STM32F4xx_HAL_Driver/Src/stm32f4xx_hal_rcc.c ****   *            @arg RCC_MCO1: Clock source to output on MCO1 pin(PA8).
 742:Platform/STM32F4xx/drivers/STM32F4xx_HAL_Driver/Src/stm32f4xx_hal_rcc.c ****   *            @arg RCC_MCO2: Clock source to output on MCO2 pin(PC9).
 743:Platform/STM32F4xx/drivers/STM32F4xx_HAL_Driver/Src/stm32f4xx_hal_rcc.c ****   * @param  RCC_MCOSource specifies the clock source to output.
 744:Platform/STM32F4xx/drivers/STM32F4xx_HAL_Driver/Src/stm32f4xx_hal_rcc.c ****   *          This parameter can be one of the following values:
 745:Platform/STM32F4xx/drivers/STM32F4xx_HAL_Driver/Src/stm32f4xx_hal_rcc.c ****   *            @arg RCC_MCO1SOURCE_HSI: HSI clock selected as MCO1 source
 746:Platform/STM32F4xx/drivers/STM32F4xx_HAL_Driver/Src/stm32f4xx_hal_rcc.c ****   *            @arg RCC_MCO1SOURCE_LSE: LSE clock selected as MCO1 source
ARM GAS  /tmp/ccSv8R8q.s 			page 27


 747:Platform/STM32F4xx/drivers/STM32F4xx_HAL_Driver/Src/stm32f4xx_hal_rcc.c ****   *            @arg RCC_MCO1SOURCE_HSE: HSE clock selected as MCO1 source
 748:Platform/STM32F4xx/drivers/STM32F4xx_HAL_Driver/Src/stm32f4xx_hal_rcc.c ****   *            @arg RCC_MCO1SOURCE_PLLCLK: main PLL clock selected as MCO1 source
 749:Platform/STM32F4xx/drivers/STM32F4xx_HAL_Driver/Src/stm32f4xx_hal_rcc.c ****   *            @arg RCC_MCO2SOURCE_SYSCLK: System clock (SYSCLK) selected as MCO2 source
 750:Platform/STM32F4xx/drivers/STM32F4xx_HAL_Driver/Src/stm32f4xx_hal_rcc.c ****   *            @arg RCC_MCO2SOURCE_PLLI2SCLK: PLLI2S clock selected as MCO2 source, available for a
 751:Platform/STM32F4xx/drivers/STM32F4xx_HAL_Driver/Src/stm32f4xx_hal_rcc.c ****   *            @arg RCC_MCO2SOURCE_I2SCLK: I2SCLK clock selected as MCO2 source, available only for
 752:Platform/STM32F4xx/drivers/STM32F4xx_HAL_Driver/Src/stm32f4xx_hal_rcc.c ****   *            @arg RCC_MCO2SOURCE_HSE: HSE clock selected as MCO2 source
 753:Platform/STM32F4xx/drivers/STM32F4xx_HAL_Driver/Src/stm32f4xx_hal_rcc.c ****   *            @arg RCC_MCO2SOURCE_PLLCLK: main PLL clock selected as MCO2 source
 754:Platform/STM32F4xx/drivers/STM32F4xx_HAL_Driver/Src/stm32f4xx_hal_rcc.c ****   * @param  RCC_MCODiv specifies the MCOx prescaler.
 755:Platform/STM32F4xx/drivers/STM32F4xx_HAL_Driver/Src/stm32f4xx_hal_rcc.c ****   *          This parameter can be one of the following values:
 756:Platform/STM32F4xx/drivers/STM32F4xx_HAL_Driver/Src/stm32f4xx_hal_rcc.c ****   *            @arg RCC_MCODIV_1: no division applied to MCOx clock
 757:Platform/STM32F4xx/drivers/STM32F4xx_HAL_Driver/Src/stm32f4xx_hal_rcc.c ****   *            @arg RCC_MCODIV_2: division by 2 applied to MCOx clock
 758:Platform/STM32F4xx/drivers/STM32F4xx_HAL_Driver/Src/stm32f4xx_hal_rcc.c ****   *            @arg RCC_MCODIV_3: division by 3 applied to MCOx clock
 759:Platform/STM32F4xx/drivers/STM32F4xx_HAL_Driver/Src/stm32f4xx_hal_rcc.c ****   *            @arg RCC_MCODIV_4: division by 4 applied to MCOx clock
 760:Platform/STM32F4xx/drivers/STM32F4xx_HAL_Driver/Src/stm32f4xx_hal_rcc.c ****   *            @arg RCC_MCODIV_5: division by 5 applied to MCOx clock
 761:Platform/STM32F4xx/drivers/STM32F4xx_HAL_Driver/Src/stm32f4xx_hal_rcc.c ****   * @note  For STM32F410Rx devices to output I2SCLK clock on MCO2 you should have
 762:Platform/STM32F4xx/drivers/STM32F4xx_HAL_Driver/Src/stm32f4xx_hal_rcc.c ****   *        at last one of the SPI clocks enabled (SPI1, SPI2 or SPI5).
 763:Platform/STM32F4xx/drivers/STM32F4xx_HAL_Driver/Src/stm32f4xx_hal_rcc.c ****   * @retval None
 764:Platform/STM32F4xx/drivers/STM32F4xx_HAL_Driver/Src/stm32f4xx_hal_rcc.c ****   */
 765:Platform/STM32F4xx/drivers/STM32F4xx_HAL_Driver/Src/stm32f4xx_hal_rcc.c **** void HAL_RCC_MCOConfig(uint32_t RCC_MCOx, uint32_t RCC_MCOSource, uint32_t RCC_MCODiv)
 766:Platform/STM32F4xx/drivers/STM32F4xx_HAL_Driver/Src/stm32f4xx_hal_rcc.c **** {
 695              		.loc 1 766 0
 696              		.cfi_startproc
 697              		@ args = 0, pretend = 0, frame = 32
 698              		@ frame_needed = 0, uses_anonymous_args = 0
 699              	.LVL59:
 700 0000 70B5     		push	{r4, r5, r6, lr}
 701              	.LCFI6:
 702              		.cfi_def_cfa_offset 16
 703              		.cfi_offset 4, -16
 704              		.cfi_offset 5, -12
 705              		.cfi_offset 6, -8
 706              		.cfi_offset 14, -4
 707 0002 88B0     		sub	sp, sp, #32
 708              	.LCFI7:
 709              		.cfi_def_cfa_offset 48
 710 0004 0C46     		mov	r4, r1
 711 0006 1646     		mov	r6, r2
 767:Platform/STM32F4xx/drivers/STM32F4xx_HAL_Driver/Src/stm32f4xx_hal_rcc.c ****   GPIO_InitTypeDef GPIO_InitStruct;
 768:Platform/STM32F4xx/drivers/STM32F4xx_HAL_Driver/Src/stm32f4xx_hal_rcc.c ****   /* Check the parameters */
 769:Platform/STM32F4xx/drivers/STM32F4xx_HAL_Driver/Src/stm32f4xx_hal_rcc.c ****   assert_param(IS_RCC_MCO(RCC_MCOx));
 770:Platform/STM32F4xx/drivers/STM32F4xx_HAL_Driver/Src/stm32f4xx_hal_rcc.c ****   assert_param(IS_RCC_MCODIV(RCC_MCODiv));
 771:Platform/STM32F4xx/drivers/STM32F4xx_HAL_Driver/Src/stm32f4xx_hal_rcc.c ****   /* RCC_MCO1 */
 772:Platform/STM32F4xx/drivers/STM32F4xx_HAL_Driver/Src/stm32f4xx_hal_rcc.c ****   if(RCC_MCOx == RCC_MCO1)
 712              		.loc 1 772 0
 713 0008 08B3     		cbz	r0, .L95
 714              	.LBB5:
 773:Platform/STM32F4xx/drivers/STM32F4xx_HAL_Driver/Src/stm32f4xx_hal_rcc.c ****   {
 774:Platform/STM32F4xx/drivers/STM32F4xx_HAL_Driver/Src/stm32f4xx_hal_rcc.c ****     assert_param(IS_RCC_MCO1SOURCE(RCC_MCOSource));
 775:Platform/STM32F4xx/drivers/STM32F4xx_HAL_Driver/Src/stm32f4xx_hal_rcc.c **** 
 776:Platform/STM32F4xx/drivers/STM32F4xx_HAL_Driver/Src/stm32f4xx_hal_rcc.c ****     /* MCO1 Clock Enable */
 777:Platform/STM32F4xx/drivers/STM32F4xx_HAL_Driver/Src/stm32f4xx_hal_rcc.c ****     __MCO1_CLK_ENABLE();
 778:Platform/STM32F4xx/drivers/STM32F4xx_HAL_Driver/Src/stm32f4xx_hal_rcc.c **** 
 779:Platform/STM32F4xx/drivers/STM32F4xx_HAL_Driver/Src/stm32f4xx_hal_rcc.c ****     /* Configure the MCO1 pin in alternate function mode */
 780:Platform/STM32F4xx/drivers/STM32F4xx_HAL_Driver/Src/stm32f4xx_hal_rcc.c ****     GPIO_InitStruct.Pin = MCO1_PIN;
 781:Platform/STM32F4xx/drivers/STM32F4xx_HAL_Driver/Src/stm32f4xx_hal_rcc.c ****     GPIO_InitStruct.Mode = GPIO_MODE_AF_PP;
 782:Platform/STM32F4xx/drivers/STM32F4xx_HAL_Driver/Src/stm32f4xx_hal_rcc.c ****     GPIO_InitStruct.Speed = GPIO_SPEED_FREQ_VERY_HIGH;
 783:Platform/STM32F4xx/drivers/STM32F4xx_HAL_Driver/Src/stm32f4xx_hal_rcc.c ****     GPIO_InitStruct.Pull = GPIO_NOPULL;
ARM GAS  /tmp/ccSv8R8q.s 			page 28


 784:Platform/STM32F4xx/drivers/STM32F4xx_HAL_Driver/Src/stm32f4xx_hal_rcc.c ****     GPIO_InitStruct.Alternate = GPIO_AF0_MCO;
 785:Platform/STM32F4xx/drivers/STM32F4xx_HAL_Driver/Src/stm32f4xx_hal_rcc.c ****     HAL_GPIO_Init(MCO1_GPIO_PORT, &GPIO_InitStruct);
 786:Platform/STM32F4xx/drivers/STM32F4xx_HAL_Driver/Src/stm32f4xx_hal_rcc.c **** 
 787:Platform/STM32F4xx/drivers/STM32F4xx_HAL_Driver/Src/stm32f4xx_hal_rcc.c ****     /* Mask MCO1 and MCO1PRE[2:0] bits then Select MCO1 clock source and prescaler */
 788:Platform/STM32F4xx/drivers/STM32F4xx_HAL_Driver/Src/stm32f4xx_hal_rcc.c ****     MODIFY_REG(RCC->CFGR, (RCC_CFGR_MCO1 | RCC_CFGR_MCO1PRE), (RCC_MCOSource | RCC_MCODiv));
 789:Platform/STM32F4xx/drivers/STM32F4xx_HAL_Driver/Src/stm32f4xx_hal_rcc.c **** 
 790:Platform/STM32F4xx/drivers/STM32F4xx_HAL_Driver/Src/stm32f4xx_hal_rcc.c ****    /* This RCC MCO1 enable feature is available only on STM32F410xx devices */
 791:Platform/STM32F4xx/drivers/STM32F4xx_HAL_Driver/Src/stm32f4xx_hal_rcc.c **** #if defined(RCC_CFGR_MCO1EN)
 792:Platform/STM32F4xx/drivers/STM32F4xx_HAL_Driver/Src/stm32f4xx_hal_rcc.c ****     __HAL_RCC_MCO1_ENABLE();
 793:Platform/STM32F4xx/drivers/STM32F4xx_HAL_Driver/Src/stm32f4xx_hal_rcc.c **** #endif /* RCC_CFGR_MCO1EN */
 794:Platform/STM32F4xx/drivers/STM32F4xx_HAL_Driver/Src/stm32f4xx_hal_rcc.c ****   }
 795:Platform/STM32F4xx/drivers/STM32F4xx_HAL_Driver/Src/stm32f4xx_hal_rcc.c **** #if defined(RCC_CFGR_MCO2)
 796:Platform/STM32F4xx/drivers/STM32F4xx_HAL_Driver/Src/stm32f4xx_hal_rcc.c ****   else
 797:Platform/STM32F4xx/drivers/STM32F4xx_HAL_Driver/Src/stm32f4xx_hal_rcc.c ****   {
 798:Platform/STM32F4xx/drivers/STM32F4xx_HAL_Driver/Src/stm32f4xx_hal_rcc.c ****     assert_param(IS_RCC_MCO2SOURCE(RCC_MCOSource));
 799:Platform/STM32F4xx/drivers/STM32F4xx_HAL_Driver/Src/stm32f4xx_hal_rcc.c **** 
 800:Platform/STM32F4xx/drivers/STM32F4xx_HAL_Driver/Src/stm32f4xx_hal_rcc.c ****     /* MCO2 Clock Enable */
 801:Platform/STM32F4xx/drivers/STM32F4xx_HAL_Driver/Src/stm32f4xx_hal_rcc.c ****     __MCO2_CLK_ENABLE();
 715              		.loc 1 801 0
 716 000a 0023     		movs	r3, #0
 717 000c 0293     		str	r3, [sp, #8]
 718 000e 204D     		ldr	r5, .L96
 719 0010 2A6B     		ldr	r2, [r5, #48]
 720              	.LVL60:
 721 0012 42F00402 		orr	r2, r2, #4
 722 0016 2A63     		str	r2, [r5, #48]
 723 0018 2A6B     		ldr	r2, [r5, #48]
 724 001a 02F00402 		and	r2, r2, #4
 725 001e 0292     		str	r2, [sp, #8]
 726 0020 029A     		ldr	r2, [sp, #8]
 727              	.LBE5:
 802:Platform/STM32F4xx/drivers/STM32F4xx_HAL_Driver/Src/stm32f4xx_hal_rcc.c **** 
 803:Platform/STM32F4xx/drivers/STM32F4xx_HAL_Driver/Src/stm32f4xx_hal_rcc.c ****     /* Configure the MCO2 pin in alternate function mode */
 804:Platform/STM32F4xx/drivers/STM32F4xx_HAL_Driver/Src/stm32f4xx_hal_rcc.c ****     GPIO_InitStruct.Pin = MCO2_PIN;
 728              		.loc 1 804 0
 729 0022 4FF40072 		mov	r2, #512
 730 0026 0392     		str	r2, [sp, #12]
 805:Platform/STM32F4xx/drivers/STM32F4xx_HAL_Driver/Src/stm32f4xx_hal_rcc.c ****     GPIO_InitStruct.Mode = GPIO_MODE_AF_PP;
 731              		.loc 1 805 0
 732 0028 0222     		movs	r2, #2
 733 002a 0492     		str	r2, [sp, #16]
 806:Platform/STM32F4xx/drivers/STM32F4xx_HAL_Driver/Src/stm32f4xx_hal_rcc.c ****     GPIO_InitStruct.Speed = GPIO_SPEED_FREQ_VERY_HIGH;
 734              		.loc 1 806 0
 735 002c 0322     		movs	r2, #3
 736 002e 0692     		str	r2, [sp, #24]
 807:Platform/STM32F4xx/drivers/STM32F4xx_HAL_Driver/Src/stm32f4xx_hal_rcc.c ****     GPIO_InitStruct.Pull = GPIO_NOPULL;
 737              		.loc 1 807 0
 738 0030 0593     		str	r3, [sp, #20]
 808:Platform/STM32F4xx/drivers/STM32F4xx_HAL_Driver/Src/stm32f4xx_hal_rcc.c ****     GPIO_InitStruct.Alternate = GPIO_AF0_MCO;
 739              		.loc 1 808 0
 740 0032 0793     		str	r3, [sp, #28]
 809:Platform/STM32F4xx/drivers/STM32F4xx_HAL_Driver/Src/stm32f4xx_hal_rcc.c ****     HAL_GPIO_Init(MCO2_GPIO_PORT, &GPIO_InitStruct);
 741              		.loc 1 809 0
 742 0034 03A9     		add	r1, sp, #12
 743              	.LVL61:
 744 0036 1748     		ldr	r0, .L96+4
 745              	.LVL62:
ARM GAS  /tmp/ccSv8R8q.s 			page 29


 746 0038 FFF7FEFF 		bl	HAL_GPIO_Init
 747              	.LVL63:
 810:Platform/STM32F4xx/drivers/STM32F4xx_HAL_Driver/Src/stm32f4xx_hal_rcc.c **** 
 811:Platform/STM32F4xx/drivers/STM32F4xx_HAL_Driver/Src/stm32f4xx_hal_rcc.c ****     /* Mask MCO2 and MCO2PRE[2:0] bits then Select MCO2 clock source and prescaler */
 812:Platform/STM32F4xx/drivers/STM32F4xx_HAL_Driver/Src/stm32f4xx_hal_rcc.c ****     MODIFY_REG(RCC->CFGR, (RCC_CFGR_MCO2 | RCC_CFGR_MCO2PRE), (RCC_MCOSource | (RCC_MCODiv << 3U)))
 748              		.loc 1 812 0
 749 003c AB68     		ldr	r3, [r5, #8]
 750 003e 23F07843 		bic	r3, r3, #-134217728
 751 0042 44EAC604 		orr	r4, r4, r6, lsl #3
 752              	.LVL64:
 753 0046 1C43     		orrs	r4, r4, r3
 754 0048 AC60     		str	r4, [r5, #8]
 755              	.L91:
 813:Platform/STM32F4xx/drivers/STM32F4xx_HAL_Driver/Src/stm32f4xx_hal_rcc.c **** 
 814:Platform/STM32F4xx/drivers/STM32F4xx_HAL_Driver/Src/stm32f4xx_hal_rcc.c ****    /* This RCC MCO2 enable feature is available only on STM32F410Rx devices */
 815:Platform/STM32F4xx/drivers/STM32F4xx_HAL_Driver/Src/stm32f4xx_hal_rcc.c **** #if defined(RCC_CFGR_MCO2EN)
 816:Platform/STM32F4xx/drivers/STM32F4xx_HAL_Driver/Src/stm32f4xx_hal_rcc.c ****     __HAL_RCC_MCO2_ENABLE();
 817:Platform/STM32F4xx/drivers/STM32F4xx_HAL_Driver/Src/stm32f4xx_hal_rcc.c **** #endif /* RCC_CFGR_MCO2EN */
 818:Platform/STM32F4xx/drivers/STM32F4xx_HAL_Driver/Src/stm32f4xx_hal_rcc.c ****   }
 819:Platform/STM32F4xx/drivers/STM32F4xx_HAL_Driver/Src/stm32f4xx_hal_rcc.c **** #endif /* RCC_CFGR_MCO2 */
 820:Platform/STM32F4xx/drivers/STM32F4xx_HAL_Driver/Src/stm32f4xx_hal_rcc.c **** }
 756              		.loc 1 820 0
 757 004a 08B0     		add	sp, sp, #32
 758              	.LCFI8:
 759              		.cfi_remember_state
 760              		.cfi_def_cfa_offset 16
 761              		@ sp needed
 762 004c 70BD     		pop	{r4, r5, r6, pc}
 763              	.LVL65:
 764              	.L95:
 765              	.LCFI9:
 766              		.cfi_restore_state
 767              	.LBB6:
 777:Platform/STM32F4xx/drivers/STM32F4xx_HAL_Driver/Src/stm32f4xx_hal_rcc.c **** 
 768              		.loc 1 777 0
 769 004e 0023     		movs	r3, #0
 770 0050 0193     		str	r3, [sp, #4]
 771 0052 0F4D     		ldr	r5, .L96
 772 0054 2A6B     		ldr	r2, [r5, #48]
 773              	.LVL66:
 774 0056 42F00102 		orr	r2, r2, #1
 775 005a 2A63     		str	r2, [r5, #48]
 776 005c 2A6B     		ldr	r2, [r5, #48]
 777 005e 02F00102 		and	r2, r2, #1
 778 0062 0192     		str	r2, [sp, #4]
 779 0064 019A     		ldr	r2, [sp, #4]
 780              	.LBE6:
 780:Platform/STM32F4xx/drivers/STM32F4xx_HAL_Driver/Src/stm32f4xx_hal_rcc.c ****     GPIO_InitStruct.Mode = GPIO_MODE_AF_PP;
 781              		.loc 1 780 0
 782 0066 4FF48072 		mov	r2, #256
 783 006a 0392     		str	r2, [sp, #12]
 781:Platform/STM32F4xx/drivers/STM32F4xx_HAL_Driver/Src/stm32f4xx_hal_rcc.c ****     GPIO_InitStruct.Speed = GPIO_SPEED_FREQ_VERY_HIGH;
 784              		.loc 1 781 0
 785 006c 0222     		movs	r2, #2
 786 006e 0492     		str	r2, [sp, #16]
 782:Platform/STM32F4xx/drivers/STM32F4xx_HAL_Driver/Src/stm32f4xx_hal_rcc.c ****     GPIO_InitStruct.Pull = GPIO_NOPULL;
 787              		.loc 1 782 0
ARM GAS  /tmp/ccSv8R8q.s 			page 30


 788 0070 0322     		movs	r2, #3
 789 0072 0692     		str	r2, [sp, #24]
 783:Platform/STM32F4xx/drivers/STM32F4xx_HAL_Driver/Src/stm32f4xx_hal_rcc.c ****     GPIO_InitStruct.Alternate = GPIO_AF0_MCO;
 790              		.loc 1 783 0
 791 0074 0593     		str	r3, [sp, #20]
 784:Platform/STM32F4xx/drivers/STM32F4xx_HAL_Driver/Src/stm32f4xx_hal_rcc.c ****     HAL_GPIO_Init(MCO1_GPIO_PORT, &GPIO_InitStruct);
 792              		.loc 1 784 0
 793 0076 0793     		str	r3, [sp, #28]
 785:Platform/STM32F4xx/drivers/STM32F4xx_HAL_Driver/Src/stm32f4xx_hal_rcc.c **** 
 794              		.loc 1 785 0
 795 0078 03A9     		add	r1, sp, #12
 796              	.LVL67:
 797 007a 0748     		ldr	r0, .L96+8
 798              	.LVL68:
 799 007c FFF7FEFF 		bl	HAL_GPIO_Init
 800              	.LVL69:
 788:Platform/STM32F4xx/drivers/STM32F4xx_HAL_Driver/Src/stm32f4xx_hal_rcc.c **** 
 801              		.loc 1 788 0
 802 0080 AB68     		ldr	r3, [r5, #8]
 803 0082 23F0EC63 		bic	r3, r3, #123731968
 804 0086 3443     		orrs	r4, r4, r6
 805              	.LVL70:
 806 0088 1C43     		orrs	r4, r4, r3
 807 008a AC60     		str	r4, [r5, #8]
 808 008c DDE7     		b	.L91
 809              	.L97:
 810 008e 00BF     		.align	2
 811              	.L96:
 812 0090 00380240 		.word	1073887232
 813 0094 00080240 		.word	1073874944
 814 0098 00000240 		.word	1073872896
 815              		.cfi_endproc
 816              	.LFE129:
 818              		.section	.text.HAL_RCC_EnableCSS,"ax",%progbits
 819              		.align	1
 820              		.global	HAL_RCC_EnableCSS
 821              		.syntax unified
 822              		.thumb
 823              		.thumb_func
 824              		.fpu fpv4-sp-d16
 826              	HAL_RCC_EnableCSS:
 827              	.LFB130:
 821:Platform/STM32F4xx/drivers/STM32F4xx_HAL_Driver/Src/stm32f4xx_hal_rcc.c **** 
 822:Platform/STM32F4xx/drivers/STM32F4xx_HAL_Driver/Src/stm32f4xx_hal_rcc.c **** /**
 823:Platform/STM32F4xx/drivers/STM32F4xx_HAL_Driver/Src/stm32f4xx_hal_rcc.c ****   * @brief  Enables the Clock Security System.
 824:Platform/STM32F4xx/drivers/STM32F4xx_HAL_Driver/Src/stm32f4xx_hal_rcc.c ****   * @note   If a failure is detected on the HSE oscillator clock, this oscillator
 825:Platform/STM32F4xx/drivers/STM32F4xx_HAL_Driver/Src/stm32f4xx_hal_rcc.c ****   *         is automatically disabled and an interrupt is generated to inform the
 826:Platform/STM32F4xx/drivers/STM32F4xx_HAL_Driver/Src/stm32f4xx_hal_rcc.c ****   *         software about the failure (Clock Security System Interrupt, CSSI),
 827:Platform/STM32F4xx/drivers/STM32F4xx_HAL_Driver/Src/stm32f4xx_hal_rcc.c ****   *         allowing the MCU to perform rescue operations. The CSSI is linked to
 828:Platform/STM32F4xx/drivers/STM32F4xx_HAL_Driver/Src/stm32f4xx_hal_rcc.c ****   *         the Cortex-M4 NMI (Non-Maskable Interrupt) exception vector.
 829:Platform/STM32F4xx/drivers/STM32F4xx_HAL_Driver/Src/stm32f4xx_hal_rcc.c ****   * @retval None
 830:Platform/STM32F4xx/drivers/STM32F4xx_HAL_Driver/Src/stm32f4xx_hal_rcc.c ****   */
 831:Platform/STM32F4xx/drivers/STM32F4xx_HAL_Driver/Src/stm32f4xx_hal_rcc.c **** void HAL_RCC_EnableCSS(void)
 832:Platform/STM32F4xx/drivers/STM32F4xx_HAL_Driver/Src/stm32f4xx_hal_rcc.c **** {
 828              		.loc 1 832 0
 829              		.cfi_startproc
 830              		@ args = 0, pretend = 0, frame = 0
ARM GAS  /tmp/ccSv8R8q.s 			page 31


 831              		@ frame_needed = 0, uses_anonymous_args = 0
 832              		@ link register save eliminated.
 833:Platform/STM32F4xx/drivers/STM32F4xx_HAL_Driver/Src/stm32f4xx_hal_rcc.c ****   *(__IO uint32_t *) RCC_CR_CSSON_BB = (uint32_t)ENABLE;
 833              		.loc 1 833 0
 834 0000 014B     		ldr	r3, .L99
 835 0002 0122     		movs	r2, #1
 836 0004 1A60     		str	r2, [r3]
 834:Platform/STM32F4xx/drivers/STM32F4xx_HAL_Driver/Src/stm32f4xx_hal_rcc.c **** }
 837              		.loc 1 834 0
 838 0006 7047     		bx	lr
 839              	.L100:
 840              		.align	2
 841              	.L99:
 842 0008 4C004742 		.word	1111949388
 843              		.cfi_endproc
 844              	.LFE130:
 846              		.section	.text.HAL_RCC_DisableCSS,"ax",%progbits
 847              		.align	1
 848              		.global	HAL_RCC_DisableCSS
 849              		.syntax unified
 850              		.thumb
 851              		.thumb_func
 852              		.fpu fpv4-sp-d16
 854              	HAL_RCC_DisableCSS:
 855              	.LFB131:
 835:Platform/STM32F4xx/drivers/STM32F4xx_HAL_Driver/Src/stm32f4xx_hal_rcc.c **** 
 836:Platform/STM32F4xx/drivers/STM32F4xx_HAL_Driver/Src/stm32f4xx_hal_rcc.c **** /**
 837:Platform/STM32F4xx/drivers/STM32F4xx_HAL_Driver/Src/stm32f4xx_hal_rcc.c ****   * @brief  Disables the Clock Security System.
 838:Platform/STM32F4xx/drivers/STM32F4xx_HAL_Driver/Src/stm32f4xx_hal_rcc.c ****   * @retval None
 839:Platform/STM32F4xx/drivers/STM32F4xx_HAL_Driver/Src/stm32f4xx_hal_rcc.c ****   */
 840:Platform/STM32F4xx/drivers/STM32F4xx_HAL_Driver/Src/stm32f4xx_hal_rcc.c **** void HAL_RCC_DisableCSS(void)
 841:Platform/STM32F4xx/drivers/STM32F4xx_HAL_Driver/Src/stm32f4xx_hal_rcc.c **** {
 856              		.loc 1 841 0
 857              		.cfi_startproc
 858              		@ args = 0, pretend = 0, frame = 0
 859              		@ frame_needed = 0, uses_anonymous_args = 0
 860              		@ link register save eliminated.
 842:Platform/STM32F4xx/drivers/STM32F4xx_HAL_Driver/Src/stm32f4xx_hal_rcc.c ****   *(__IO uint32_t *) RCC_CR_CSSON_BB = (uint32_t)DISABLE;
 861              		.loc 1 842 0
 862 0000 014B     		ldr	r3, .L102
 863 0002 0022     		movs	r2, #0
 864 0004 1A60     		str	r2, [r3]
 843:Platform/STM32F4xx/drivers/STM32F4xx_HAL_Driver/Src/stm32f4xx_hal_rcc.c **** }
 865              		.loc 1 843 0
 866 0006 7047     		bx	lr
 867              	.L103:
 868              		.align	2
 869              	.L102:
 870 0008 4C004742 		.word	1111949388
 871              		.cfi_endproc
 872              	.LFE131:
 874              		.global	__aeabi_uldivmod
 875              		.section	.text.HAL_RCC_GetSysClockFreq,"ax",%progbits
 876              		.align	1
 877              		.weak	HAL_RCC_GetSysClockFreq
 878              		.syntax unified
 879              		.thumb
ARM GAS  /tmp/ccSv8R8q.s 			page 32


 880              		.thumb_func
 881              		.fpu fpv4-sp-d16
 883              	HAL_RCC_GetSysClockFreq:
 884              	.LFB132:
 844:Platform/STM32F4xx/drivers/STM32F4xx_HAL_Driver/Src/stm32f4xx_hal_rcc.c **** 
 845:Platform/STM32F4xx/drivers/STM32F4xx_HAL_Driver/Src/stm32f4xx_hal_rcc.c **** /**
 846:Platform/STM32F4xx/drivers/STM32F4xx_HAL_Driver/Src/stm32f4xx_hal_rcc.c ****   * @brief  Returns the SYSCLK frequency
 847:Platform/STM32F4xx/drivers/STM32F4xx_HAL_Driver/Src/stm32f4xx_hal_rcc.c ****   *
 848:Platform/STM32F4xx/drivers/STM32F4xx_HAL_Driver/Src/stm32f4xx_hal_rcc.c ****   * @note   The system frequency computed by this function is not the real
 849:Platform/STM32F4xx/drivers/STM32F4xx_HAL_Driver/Src/stm32f4xx_hal_rcc.c ****   *         frequency in the chip. It is calculated based on the predefined
 850:Platform/STM32F4xx/drivers/STM32F4xx_HAL_Driver/Src/stm32f4xx_hal_rcc.c ****   *         constant and the selected clock source:
 851:Platform/STM32F4xx/drivers/STM32F4xx_HAL_Driver/Src/stm32f4xx_hal_rcc.c ****   * @note     If SYSCLK source is HSI, function returns values based on HSI_VALUE(*)
 852:Platform/STM32F4xx/drivers/STM32F4xx_HAL_Driver/Src/stm32f4xx_hal_rcc.c ****   * @note     If SYSCLK source is HSE, function returns values based on HSE_VALUE(**)
 853:Platform/STM32F4xx/drivers/STM32F4xx_HAL_Driver/Src/stm32f4xx_hal_rcc.c ****   * @note     If SYSCLK source is PLL, function returns values based on HSE_VALUE(**)
 854:Platform/STM32F4xx/drivers/STM32F4xx_HAL_Driver/Src/stm32f4xx_hal_rcc.c ****   *           or HSI_VALUE(*) multiplied/divided by the PLL factors.
 855:Platform/STM32F4xx/drivers/STM32F4xx_HAL_Driver/Src/stm32f4xx_hal_rcc.c ****   * @note     (*) HSI_VALUE is a constant defined in stm32f4xx_hal_conf.h file (default value
 856:Platform/STM32F4xx/drivers/STM32F4xx_HAL_Driver/Src/stm32f4xx_hal_rcc.c ****   *               16 MHz) but the real value may vary depending on the variations
 857:Platform/STM32F4xx/drivers/STM32F4xx_HAL_Driver/Src/stm32f4xx_hal_rcc.c ****   *               in voltage and temperature.
 858:Platform/STM32F4xx/drivers/STM32F4xx_HAL_Driver/Src/stm32f4xx_hal_rcc.c ****   * @note     (**) HSE_VALUE is a constant defined in stm32f4xx_hal_conf.h file (default value
 859:Platform/STM32F4xx/drivers/STM32F4xx_HAL_Driver/Src/stm32f4xx_hal_rcc.c ****   *                25 MHz), user has to ensure that HSE_VALUE is same as the real
 860:Platform/STM32F4xx/drivers/STM32F4xx_HAL_Driver/Src/stm32f4xx_hal_rcc.c ****   *                frequency of the crystal used. Otherwise, this function may
 861:Platform/STM32F4xx/drivers/STM32F4xx_HAL_Driver/Src/stm32f4xx_hal_rcc.c ****   *                have wrong result.
 862:Platform/STM32F4xx/drivers/STM32F4xx_HAL_Driver/Src/stm32f4xx_hal_rcc.c ****   *
 863:Platform/STM32F4xx/drivers/STM32F4xx_HAL_Driver/Src/stm32f4xx_hal_rcc.c ****   * @note   The result of this function could be not correct when using fractional
 864:Platform/STM32F4xx/drivers/STM32F4xx_HAL_Driver/Src/stm32f4xx_hal_rcc.c ****   *         value for HSE crystal.
 865:Platform/STM32F4xx/drivers/STM32F4xx_HAL_Driver/Src/stm32f4xx_hal_rcc.c ****   *
 866:Platform/STM32F4xx/drivers/STM32F4xx_HAL_Driver/Src/stm32f4xx_hal_rcc.c ****   * @note   This function can be used by the user application to compute the
 867:Platform/STM32F4xx/drivers/STM32F4xx_HAL_Driver/Src/stm32f4xx_hal_rcc.c ****   *         baudrate for the communication peripherals or configure other parameters.
 868:Platform/STM32F4xx/drivers/STM32F4xx_HAL_Driver/Src/stm32f4xx_hal_rcc.c ****   *
 869:Platform/STM32F4xx/drivers/STM32F4xx_HAL_Driver/Src/stm32f4xx_hal_rcc.c ****   * @note   Each time SYSCLK changes, this function must be called to update the
 870:Platform/STM32F4xx/drivers/STM32F4xx_HAL_Driver/Src/stm32f4xx_hal_rcc.c ****   *         right SYSCLK value. Otherwise, any configuration based on this function will be incorre
 871:Platform/STM32F4xx/drivers/STM32F4xx_HAL_Driver/Src/stm32f4xx_hal_rcc.c ****   *
 872:Platform/STM32F4xx/drivers/STM32F4xx_HAL_Driver/Src/stm32f4xx_hal_rcc.c ****   *
 873:Platform/STM32F4xx/drivers/STM32F4xx_HAL_Driver/Src/stm32f4xx_hal_rcc.c ****   * @retval SYSCLK frequency
 874:Platform/STM32F4xx/drivers/STM32F4xx_HAL_Driver/Src/stm32f4xx_hal_rcc.c ****   */
 875:Platform/STM32F4xx/drivers/STM32F4xx_HAL_Driver/Src/stm32f4xx_hal_rcc.c **** __weak uint32_t HAL_RCC_GetSysClockFreq(void)
 876:Platform/STM32F4xx/drivers/STM32F4xx_HAL_Driver/Src/stm32f4xx_hal_rcc.c **** {
 885              		.loc 1 876 0
 886              		.cfi_startproc
 887              		@ args = 0, pretend = 0, frame = 0
 888              		@ frame_needed = 0, uses_anonymous_args = 0
 889              	.LVL71:
 877:Platform/STM32F4xx/drivers/STM32F4xx_HAL_Driver/Src/stm32f4xx_hal_rcc.c ****   uint32_t pllm = 0U, pllvco = 0U, pllp = 0U;
 878:Platform/STM32F4xx/drivers/STM32F4xx_HAL_Driver/Src/stm32f4xx_hal_rcc.c ****   uint32_t sysclockfreq = 0U;
 879:Platform/STM32F4xx/drivers/STM32F4xx_HAL_Driver/Src/stm32f4xx_hal_rcc.c **** 
 880:Platform/STM32F4xx/drivers/STM32F4xx_HAL_Driver/Src/stm32f4xx_hal_rcc.c ****   /* Get SYSCLK source -------------------------------------------------------*/
 881:Platform/STM32F4xx/drivers/STM32F4xx_HAL_Driver/Src/stm32f4xx_hal_rcc.c ****   switch (RCC->CFGR & RCC_CFGR_SWS)
 890              		.loc 1 881 0
 891 0000 264B     		ldr	r3, .L114
 892 0002 9B68     		ldr	r3, [r3, #8]
 893 0004 03F00C03 		and	r3, r3, #12
 894 0008 042B     		cmp	r3, #4
 895 000a 44D0     		beq	.L110
 896 000c 082B     		cmp	r3, #8
 897 000e 01D0     		beq	.L107
 882:Platform/STM32F4xx/drivers/STM32F4xx_HAL_Driver/Src/stm32f4xx_hal_rcc.c ****   {
 883:Platform/STM32F4xx/drivers/STM32F4xx_HAL_Driver/Src/stm32f4xx_hal_rcc.c ****     case RCC_CFGR_SWS_HSI:  /* HSI used as system clock source */
ARM GAS  /tmp/ccSv8R8q.s 			page 33


 884:Platform/STM32F4xx/drivers/STM32F4xx_HAL_Driver/Src/stm32f4xx_hal_rcc.c ****     {
 885:Platform/STM32F4xx/drivers/STM32F4xx_HAL_Driver/Src/stm32f4xx_hal_rcc.c ****       sysclockfreq = HSI_VALUE;
 898              		.loc 1 885 0
 899 0010 2348     		ldr	r0, .L114+4
 900 0012 7047     		bx	lr
 901              	.L107:
 876:Platform/STM32F4xx/drivers/STM32F4xx_HAL_Driver/Src/stm32f4xx_hal_rcc.c ****   uint32_t pllm = 0U, pllvco = 0U, pllp = 0U;
 902              		.loc 1 876 0
 903 0014 2DE9F04B 		push	{r4, r5, r6, r7, r8, r9, fp, lr}
 904              	.LCFI10:
 905              		.cfi_def_cfa_offset 32
 906              		.cfi_offset 4, -32
 907              		.cfi_offset 5, -28
 908              		.cfi_offset 6, -24
 909              		.cfi_offset 7, -20
 910              		.cfi_offset 8, -16
 911              		.cfi_offset 9, -12
 912              		.cfi_offset 11, -8
 913              		.cfi_offset 14, -4
 886:Platform/STM32F4xx/drivers/STM32F4xx_HAL_Driver/Src/stm32f4xx_hal_rcc.c ****        break;
 887:Platform/STM32F4xx/drivers/STM32F4xx_HAL_Driver/Src/stm32f4xx_hal_rcc.c ****     }
 888:Platform/STM32F4xx/drivers/STM32F4xx_HAL_Driver/Src/stm32f4xx_hal_rcc.c ****     case RCC_CFGR_SWS_HSE:  /* HSE used as system clock  source */
 889:Platform/STM32F4xx/drivers/STM32F4xx_HAL_Driver/Src/stm32f4xx_hal_rcc.c ****     {
 890:Platform/STM32F4xx/drivers/STM32F4xx_HAL_Driver/Src/stm32f4xx_hal_rcc.c ****       sysclockfreq = HSE_VALUE;
 891:Platform/STM32F4xx/drivers/STM32F4xx_HAL_Driver/Src/stm32f4xx_hal_rcc.c ****       break;
 892:Platform/STM32F4xx/drivers/STM32F4xx_HAL_Driver/Src/stm32f4xx_hal_rcc.c ****     }
 893:Platform/STM32F4xx/drivers/STM32F4xx_HAL_Driver/Src/stm32f4xx_hal_rcc.c ****     case RCC_CFGR_SWS_PLL:  /* PLL used as system clock  source */
 894:Platform/STM32F4xx/drivers/STM32F4xx_HAL_Driver/Src/stm32f4xx_hal_rcc.c ****     {
 895:Platform/STM32F4xx/drivers/STM32F4xx_HAL_Driver/Src/stm32f4xx_hal_rcc.c ****       /* PLL_VCO = (HSE_VALUE or HSI_VALUE / PLLM) * PLLN
 896:Platform/STM32F4xx/drivers/STM32F4xx_HAL_Driver/Src/stm32f4xx_hal_rcc.c ****       SYSCLK = PLL_VCO / PLLP */
 897:Platform/STM32F4xx/drivers/STM32F4xx_HAL_Driver/Src/stm32f4xx_hal_rcc.c ****       pllm = RCC->PLLCFGR & RCC_PLLCFGR_PLLM;
 914              		.loc 1 897 0
 915 0018 204B     		ldr	r3, .L114
 916 001a 5A68     		ldr	r2, [r3, #4]
 917 001c 02F03F02 		and	r2, r2, #63
 918              	.LVL72:
 898:Platform/STM32F4xx/drivers/STM32F4xx_HAL_Driver/Src/stm32f4xx_hal_rcc.c ****       if(__HAL_RCC_GET_PLL_OSCSOURCE() != RCC_PLLSOURCE_HSI)
 919              		.loc 1 898 0
 920 0020 5B68     		ldr	r3, [r3, #4]
 921 0022 13F4800F 		tst	r3, #4194304
 922 0026 13D0     		beq	.L108
 899:Platform/STM32F4xx/drivers/STM32F4xx_HAL_Driver/Src/stm32f4xx_hal_rcc.c ****       {
 900:Platform/STM32F4xx/drivers/STM32F4xx_HAL_Driver/Src/stm32f4xx_hal_rcc.c ****         /* HSE used as PLL clock source */
 901:Platform/STM32F4xx/drivers/STM32F4xx_HAL_Driver/Src/stm32f4xx_hal_rcc.c ****         pllvco = (uint32_t) ((((uint64_t) HSE_VALUE * ((uint64_t) ((RCC->PLLCFGR & RCC_PLLCFGR_PLLN
 923              		.loc 1 901 0
 924 0028 1C4B     		ldr	r3, .L114
 925 002a 5968     		ldr	r1, [r3, #4]
 926 002c C1F38811 		ubfx	r1, r1, #6, #9
 927 0030 0023     		movs	r3, #0
 928 0032 1C48     		ldr	r0, .L114+8
 929 0034 A1FB0001 		umull	r0, r1, r1, r0
 930 0038 FFF7FEFF 		bl	__aeabi_uldivmod
 931              	.LVL73:
 932              	.L109:
 902:Platform/STM32F4xx/drivers/STM32F4xx_HAL_Driver/Src/stm32f4xx_hal_rcc.c ****       }
 903:Platform/STM32F4xx/drivers/STM32F4xx_HAL_Driver/Src/stm32f4xx_hal_rcc.c ****       else
 904:Platform/STM32F4xx/drivers/STM32F4xx_HAL_Driver/Src/stm32f4xx_hal_rcc.c ****       {
ARM GAS  /tmp/ccSv8R8q.s 			page 34


 905:Platform/STM32F4xx/drivers/STM32F4xx_HAL_Driver/Src/stm32f4xx_hal_rcc.c ****         /* HSI used as PLL clock source */
 906:Platform/STM32F4xx/drivers/STM32F4xx_HAL_Driver/Src/stm32f4xx_hal_rcc.c ****         pllvco = (uint32_t) ((((uint64_t) HSI_VALUE * ((uint64_t) ((RCC->PLLCFGR & RCC_PLLCFGR_PLLN
 907:Platform/STM32F4xx/drivers/STM32F4xx_HAL_Driver/Src/stm32f4xx_hal_rcc.c ****       }
 908:Platform/STM32F4xx/drivers/STM32F4xx_HAL_Driver/Src/stm32f4xx_hal_rcc.c ****       pllp = ((((RCC->PLLCFGR & RCC_PLLCFGR_PLLP) >> RCC_PLLCFGR_PLLP_Pos) + 1U) *2U);
 933              		.loc 1 908 0
 934 003c 174B     		ldr	r3, .L114
 935 003e 5B68     		ldr	r3, [r3, #4]
 936 0040 C3F30143 		ubfx	r3, r3, #16, #2
 937 0044 0133     		adds	r3, r3, #1
 938 0046 5B00     		lsls	r3, r3, #1
 939              	.LVL74:
 909:Platform/STM32F4xx/drivers/STM32F4xx_HAL_Driver/Src/stm32f4xx_hal_rcc.c **** 
 910:Platform/STM32F4xx/drivers/STM32F4xx_HAL_Driver/Src/stm32f4xx_hal_rcc.c ****       sysclockfreq = pllvco/pllp;
 940              		.loc 1 910 0
 941 0048 B0FBF3F0 		udiv	r0, r0, r3
 942              	.LVL75:
 911:Platform/STM32F4xx/drivers/STM32F4xx_HAL_Driver/Src/stm32f4xx_hal_rcc.c ****       break;
 912:Platform/STM32F4xx/drivers/STM32F4xx_HAL_Driver/Src/stm32f4xx_hal_rcc.c ****     }
 913:Platform/STM32F4xx/drivers/STM32F4xx_HAL_Driver/Src/stm32f4xx_hal_rcc.c ****     default:
 914:Platform/STM32F4xx/drivers/STM32F4xx_HAL_Driver/Src/stm32f4xx_hal_rcc.c ****     {
 915:Platform/STM32F4xx/drivers/STM32F4xx_HAL_Driver/Src/stm32f4xx_hal_rcc.c ****       sysclockfreq = HSI_VALUE;
 916:Platform/STM32F4xx/drivers/STM32F4xx_HAL_Driver/Src/stm32f4xx_hal_rcc.c ****       break;
 917:Platform/STM32F4xx/drivers/STM32F4xx_HAL_Driver/Src/stm32f4xx_hal_rcc.c ****     }
 918:Platform/STM32F4xx/drivers/STM32F4xx_HAL_Driver/Src/stm32f4xx_hal_rcc.c ****   }
 919:Platform/STM32F4xx/drivers/STM32F4xx_HAL_Driver/Src/stm32f4xx_hal_rcc.c ****   return sysclockfreq;
 920:Platform/STM32F4xx/drivers/STM32F4xx_HAL_Driver/Src/stm32f4xx_hal_rcc.c **** }
 943              		.loc 1 920 0
 944 004c BDE8F08B 		pop	{r4, r5, r6, r7, r8, r9, fp, pc}
 945              	.LVL76:
 946              	.L108:
 906:Platform/STM32F4xx/drivers/STM32F4xx_HAL_Driver/Src/stm32f4xx_hal_rcc.c ****       }
 947              		.loc 1 906 0
 948 0050 124B     		ldr	r3, .L114
 949 0052 5B68     		ldr	r3, [r3, #4]
 950 0054 C3F38813 		ubfx	r3, r3, #6, #9
 951 0058 1E46     		mov	r6, r3
 952 005a 0027     		movs	r7, #0
 953 005c 5C01     		lsls	r4, r3, #5
 954 005e 0025     		movs	r5, #0
 955 0060 E41A     		subs	r4, r4, r3
 956 0062 65EB0705 		sbc	r5, r5, r7
 957 0066 A901     		lsls	r1, r5, #6
 958 0068 41EA9461 		orr	r1, r1, r4, lsr #26
 959 006c A001     		lsls	r0, r4, #6
 960 006e 001B     		subs	r0, r0, r4
 961 0070 61EB0501 		sbc	r1, r1, r5
 962 0074 CB00     		lsls	r3, r1, #3
 963 0076 43EA5073 		orr	r3, r3, r0, lsr #29
 964 007a C400     		lsls	r4, r0, #3
 965 007c A019     		adds	r0, r4, r6
 966 007e 43EB0701 		adc	r1, r3, r7
 967 0082 8B02     		lsls	r3, r1, #10
 968 0084 43EA9053 		orr	r3, r3, r0, lsr #22
 969 0088 8402     		lsls	r4, r0, #10
 970 008a 2046     		mov	r0, r4
 971 008c 1946     		mov	r1, r3
 972 008e 0023     		movs	r3, #0
ARM GAS  /tmp/ccSv8R8q.s 			page 35


 973 0090 FFF7FEFF 		bl	__aeabi_uldivmod
 974              	.LVL77:
 975 0094 D2E7     		b	.L109
 976              	.LVL78:
 977              	.L110:
 978              	.LCFI11:
 979              		.cfi_def_cfa_offset 0
 980              		.cfi_restore 4
 981              		.cfi_restore 5
 982              		.cfi_restore 6
 983              		.cfi_restore 7
 984              		.cfi_restore 8
 985              		.cfi_restore 9
 986              		.cfi_restore 11
 987              		.cfi_restore 14
 890:Platform/STM32F4xx/drivers/STM32F4xx_HAL_Driver/Src/stm32f4xx_hal_rcc.c ****       break;
 988              		.loc 1 890 0
 989 0096 0348     		ldr	r0, .L114+8
 990              	.LVL79:
 991              		.loc 1 920 0
 992 0098 7047     		bx	lr
 993              	.L115:
 994 009a 00BF     		.align	2
 995              	.L114:
 996 009c 00380240 		.word	1073887232
 997 00a0 0024F400 		.word	16000000
 998 00a4 40787D01 		.word	25000000
 999              		.cfi_endproc
 1000              	.LFE132:
 1002              		.section	.text.HAL_RCC_ClockConfig,"ax",%progbits
 1003              		.align	1
 1004              		.global	HAL_RCC_ClockConfig
 1005              		.syntax unified
 1006              		.thumb
 1007              		.thumb_func
 1008              		.fpu fpv4-sp-d16
 1010              	HAL_RCC_ClockConfig:
 1011              	.LFB128:
 582:Platform/STM32F4xx/drivers/STM32F4xx_HAL_Driver/Src/stm32f4xx_hal_rcc.c ****   uint32_t tickstart;
 1012              		.loc 1 582 0
 1013              		.cfi_startproc
 1014              		@ args = 0, pretend = 0, frame = 0
 1015              		@ frame_needed = 0, uses_anonymous_args = 0
 1016              	.LVL80:
 586:Platform/STM32F4xx/drivers/STM32F4xx_HAL_Driver/Src/stm32f4xx_hal_rcc.c ****   {
 1017              		.loc 1 586 0
 1018 0000 0028     		cmp	r0, #0
 1019 0002 00F09D80 		beq	.L131
 582:Platform/STM32F4xx/drivers/STM32F4xx_HAL_Driver/Src/stm32f4xx_hal_rcc.c ****   uint32_t tickstart;
 1020              		.loc 1 582 0
 1021 0006 70B5     		push	{r4, r5, r6, lr}
 1022              	.LCFI12:
 1023              		.cfi_def_cfa_offset 16
 1024              		.cfi_offset 4, -16
 1025              		.cfi_offset 5, -12
 1026              		.cfi_offset 6, -8
 1027              		.cfi_offset 14, -4
ARM GAS  /tmp/ccSv8R8q.s 			page 36


 1028 0008 0446     		mov	r4, r0
 600:Platform/STM32F4xx/drivers/STM32F4xx_HAL_Driver/Src/stm32f4xx_hal_rcc.c ****   {
 1029              		.loc 1 600 0
 1030 000a 4F4B     		ldr	r3, .L144
 1031 000c 1B68     		ldr	r3, [r3]
 1032 000e 03F00F03 		and	r3, r3, #15
 1033 0012 8B42     		cmp	r3, r1
 1034 0014 09D2     		bcs	.L118
 603:Platform/STM32F4xx/drivers/STM32F4xx_HAL_Driver/Src/stm32f4xx_hal_rcc.c **** 
 1035              		.loc 1 603 0
 1036 0016 CBB2     		uxtb	r3, r1
 1037 0018 4B4A     		ldr	r2, .L144
 1038 001a 1370     		strb	r3, [r2]
 607:Platform/STM32F4xx/drivers/STM32F4xx_HAL_Driver/Src/stm32f4xx_hal_rcc.c ****     {
 1039              		.loc 1 607 0
 1040 001c 1368     		ldr	r3, [r2]
 1041 001e 03F00F03 		and	r3, r3, #15
 1042 0022 8B42     		cmp	r3, r1
 1043 0024 01D0     		beq	.L118
 609:Platform/STM32F4xx/drivers/STM32F4xx_HAL_Driver/Src/stm32f4xx_hal_rcc.c ****     }
 1044              		.loc 1 609 0
 1045 0026 0120     		movs	r0, #1
 1046              	.LVL81:
 1047              	.L117:
 715:Platform/STM32F4xx/drivers/STM32F4xx_HAL_Driver/Src/stm32f4xx_hal_rcc.c **** 
 1048              		.loc 1 715 0
 1049 0028 70BD     		pop	{r4, r5, r6, pc}
 1050              	.LVL82:
 1051              	.L118:
 614:Platform/STM32F4xx/drivers/STM32F4xx_HAL_Driver/Src/stm32f4xx_hal_rcc.c ****   {
 1052              		.loc 1 614 0
 1053 002a 2368     		ldr	r3, [r4]
 1054 002c 13F0020F 		tst	r3, #2
 1055 0030 17D0     		beq	.L119
 618:Platform/STM32F4xx/drivers/STM32F4xx_HAL_Driver/Src/stm32f4xx_hal_rcc.c ****     {
 1056              		.loc 1 618 0
 1057 0032 13F0040F 		tst	r3, #4
 1058 0036 04D0     		beq	.L120
 620:Platform/STM32F4xx/drivers/STM32F4xx_HAL_Driver/Src/stm32f4xx_hal_rcc.c ****     }
 1059              		.loc 1 620 0
 1060 0038 444A     		ldr	r2, .L144+4
 1061 003a 9368     		ldr	r3, [r2, #8]
 1062 003c 43F4E053 		orr	r3, r3, #7168
 1063 0040 9360     		str	r3, [r2, #8]
 1064              	.L120:
 623:Platform/STM32F4xx/drivers/STM32F4xx_HAL_Driver/Src/stm32f4xx_hal_rcc.c ****     {
 1065              		.loc 1 623 0
 1066 0042 2368     		ldr	r3, [r4]
 1067 0044 13F0080F 		tst	r3, #8
 1068 0048 04D0     		beq	.L121
 625:Platform/STM32F4xx/drivers/STM32F4xx_HAL_Driver/Src/stm32f4xx_hal_rcc.c ****     }
 1069              		.loc 1 625 0
 1070 004a 404A     		ldr	r2, .L144+4
 1071 004c 9368     		ldr	r3, [r2, #8]
 1072 004e 43F46043 		orr	r3, r3, #57344
 1073 0052 9360     		str	r3, [r2, #8]
 1074              	.L121:
ARM GAS  /tmp/ccSv8R8q.s 			page 37


 629:Platform/STM32F4xx/drivers/STM32F4xx_HAL_Driver/Src/stm32f4xx_hal_rcc.c ****   }
 1075              		.loc 1 629 0
 1076 0054 3D4A     		ldr	r2, .L144+4
 1077 0056 9368     		ldr	r3, [r2, #8]
 1078 0058 23F0F003 		bic	r3, r3, #240
 1079 005c A068     		ldr	r0, [r4, #8]
 1080              	.LVL83:
 1081 005e 0343     		orrs	r3, r3, r0
 1082 0060 9360     		str	r3, [r2, #8]
 1083              	.L119:
 1084 0062 0D46     		mov	r5, r1
 633:Platform/STM32F4xx/drivers/STM32F4xx_HAL_Driver/Src/stm32f4xx_hal_rcc.c ****   {
 1085              		.loc 1 633 0
 1086 0064 2368     		ldr	r3, [r4]
 1087 0066 13F0010F 		tst	r3, #1
 1088 006a 32D0     		beq	.L122
 638:Platform/STM32F4xx/drivers/STM32F4xx_HAL_Driver/Src/stm32f4xx_hal_rcc.c ****     {
 1089              		.loc 1 638 0
 1090 006c 6368     		ldr	r3, [r4, #4]
 1091 006e 012B     		cmp	r3, #1
 1092 0070 21D0     		beq	.L142
 647:Platform/STM32F4xx/drivers/STM32F4xx_HAL_Driver/Src/stm32f4xx_hal_rcc.c ****             (RCC_ClkInitStruct->SYSCLKSource == RCC_SYSCLKSOURCE_PLLRCLK))
 1093              		.loc 1 647 0
 1094 0072 9A1E     		subs	r2, r3, #2
 1095 0074 012A     		cmp	r2, #1
 1096 0076 25D9     		bls	.L143
 660:Platform/STM32F4xx/drivers/STM32F4xx_HAL_Driver/Src/stm32f4xx_hal_rcc.c ****       {
 1097              		.loc 1 660 0
 1098 0078 344A     		ldr	r2, .L144+4
 1099 007a 1268     		ldr	r2, [r2]
 1100 007c 12F0020F 		tst	r2, #2
 1101 0080 60D0     		beq	.L135
 1102              	.L124:
 666:Platform/STM32F4xx/drivers/STM32F4xx_HAL_Driver/Src/stm32f4xx_hal_rcc.c **** 
 1103              		.loc 1 666 0
 1104 0082 3249     		ldr	r1, .L144+4
 1105              	.LVL84:
 1106 0084 8A68     		ldr	r2, [r1, #8]
 1107 0086 22F00302 		bic	r2, r2, #3
 1108 008a 1343     		orrs	r3, r3, r2
 1109 008c 8B60     		str	r3, [r1, #8]
 669:Platform/STM32F4xx/drivers/STM32F4xx_HAL_Driver/Src/stm32f4xx_hal_rcc.c **** 
 1110              		.loc 1 669 0
 1111 008e FFF7FEFF 		bl	HAL_GetTick
 1112              	.LVL85:
 1113 0092 0646     		mov	r6, r0
 1114              	.LVL86:
 1115              	.L126:
 671:Platform/STM32F4xx/drivers/STM32F4xx_HAL_Driver/Src/stm32f4xx_hal_rcc.c ****     {
 1116              		.loc 1 671 0
 1117 0094 2D4B     		ldr	r3, .L144+4
 1118 0096 9B68     		ldr	r3, [r3, #8]
 1119 0098 03F00C03 		and	r3, r3, #12
 1120 009c 6268     		ldr	r2, [r4, #4]
 1121 009e B3EB820F 		cmp	r3, r2, lsl #2
 1122 00a2 16D0     		beq	.L122
 673:Platform/STM32F4xx/drivers/STM32F4xx_HAL_Driver/Src/stm32f4xx_hal_rcc.c ****       {
ARM GAS  /tmp/ccSv8R8q.s 			page 38


 1123              		.loc 1 673 0
 1124 00a4 FFF7FEFF 		bl	HAL_GetTick
 1125              	.LVL87:
 1126 00a8 801B     		subs	r0, r0, r6
 1127 00aa 41F28833 		movw	r3, #5000
 1128 00ae 9842     		cmp	r0, r3
 1129 00b0 F0D9     		bls	.L126
 675:Platform/STM32F4xx/drivers/STM32F4xx_HAL_Driver/Src/stm32f4xx_hal_rcc.c ****       }
 1130              		.loc 1 675 0
 1131 00b2 0320     		movs	r0, #3
 1132 00b4 B8E7     		b	.L117
 1133              	.LVL88:
 1134              	.L142:
 641:Platform/STM32F4xx/drivers/STM32F4xx_HAL_Driver/Src/stm32f4xx_hal_rcc.c ****       {
 1135              		.loc 1 641 0
 1136 00b6 254A     		ldr	r2, .L144+4
 1137 00b8 1268     		ldr	r2, [r2]
 1138 00ba 12F4003F 		tst	r2, #131072
 1139 00be E0D1     		bne	.L124
 643:Platform/STM32F4xx/drivers/STM32F4xx_HAL_Driver/Src/stm32f4xx_hal_rcc.c ****       }
 1140              		.loc 1 643 0
 1141 00c0 0120     		movs	r0, #1
 1142 00c2 B1E7     		b	.L117
 1143              	.L143:
 651:Platform/STM32F4xx/drivers/STM32F4xx_HAL_Driver/Src/stm32f4xx_hal_rcc.c ****       {
 1144              		.loc 1 651 0
 1145 00c4 214A     		ldr	r2, .L144+4
 1146 00c6 1268     		ldr	r2, [r2]
 1147 00c8 12F0007F 		tst	r2, #33554432
 1148 00cc D9D1     		bne	.L124
 653:Platform/STM32F4xx/drivers/STM32F4xx_HAL_Driver/Src/stm32f4xx_hal_rcc.c ****       }
 1149              		.loc 1 653 0
 1150 00ce 0120     		movs	r0, #1
 1151 00d0 AAE7     		b	.L117
 1152              	.LVL89:
 1153              	.L122:
 681:Platform/STM32F4xx/drivers/STM32F4xx_HAL_Driver/Src/stm32f4xx_hal_rcc.c ****   {
 1154              		.loc 1 681 0
 1155 00d2 1D4B     		ldr	r3, .L144
 1156 00d4 1B68     		ldr	r3, [r3]
 1157 00d6 03F00F03 		and	r3, r3, #15
 1158 00da AB42     		cmp	r3, r5
 1159 00dc 09D9     		bls	.L128
 684:Platform/STM32F4xx/drivers/STM32F4xx_HAL_Driver/Src/stm32f4xx_hal_rcc.c **** 
 1160              		.loc 1 684 0
 1161 00de EAB2     		uxtb	r2, r5
 1162 00e0 194B     		ldr	r3, .L144
 1163 00e2 1A70     		strb	r2, [r3]
 688:Platform/STM32F4xx/drivers/STM32F4xx_HAL_Driver/Src/stm32f4xx_hal_rcc.c ****     {
 1164              		.loc 1 688 0
 1165 00e4 1B68     		ldr	r3, [r3]
 1166 00e6 03F00F03 		and	r3, r3, #15
 1167 00ea AB42     		cmp	r3, r5
 1168 00ec 01D0     		beq	.L128
 690:Platform/STM32F4xx/drivers/STM32F4xx_HAL_Driver/Src/stm32f4xx_hal_rcc.c ****     }
 1169              		.loc 1 690 0
 1170 00ee 0120     		movs	r0, #1
ARM GAS  /tmp/ccSv8R8q.s 			page 39


 1171 00f0 9AE7     		b	.L117
 1172              	.L128:
 695:Platform/STM32F4xx/drivers/STM32F4xx_HAL_Driver/Src/stm32f4xx_hal_rcc.c ****   {
 1173              		.loc 1 695 0
 1174 00f2 2368     		ldr	r3, [r4]
 1175 00f4 13F0040F 		tst	r3, #4
 1176 00f8 06D0     		beq	.L129
 698:Platform/STM32F4xx/drivers/STM32F4xx_HAL_Driver/Src/stm32f4xx_hal_rcc.c ****   }
 1177              		.loc 1 698 0
 1178 00fa 144A     		ldr	r2, .L144+4
 1179 00fc 9368     		ldr	r3, [r2, #8]
 1180 00fe 23F4E053 		bic	r3, r3, #7168
 1181 0102 E168     		ldr	r1, [r4, #12]
 1182 0104 0B43     		orrs	r3, r3, r1
 1183 0106 9360     		str	r3, [r2, #8]
 1184              	.L129:
 702:Platform/STM32F4xx/drivers/STM32F4xx_HAL_Driver/Src/stm32f4xx_hal_rcc.c ****   {
 1185              		.loc 1 702 0
 1186 0108 2368     		ldr	r3, [r4]
 1187 010a 13F0080F 		tst	r3, #8
 1188 010e 07D0     		beq	.L130
 705:Platform/STM32F4xx/drivers/STM32F4xx_HAL_Driver/Src/stm32f4xx_hal_rcc.c ****   }
 1189              		.loc 1 705 0
 1190 0110 0E4A     		ldr	r2, .L144+4
 1191 0112 9368     		ldr	r3, [r2, #8]
 1192 0114 23F46043 		bic	r3, r3, #57344
 1193 0118 2169     		ldr	r1, [r4, #16]
 1194 011a 43EAC103 		orr	r3, r3, r1, lsl #3
 1195 011e 9360     		str	r3, [r2, #8]
 1196              	.L130:
 709:Platform/STM32F4xx/drivers/STM32F4xx_HAL_Driver/Src/stm32f4xx_hal_rcc.c **** 
 1197              		.loc 1 709 0
 1198 0120 FFF7FEFF 		bl	HAL_RCC_GetSysClockFreq
 1199              	.LVL90:
 1200 0124 094B     		ldr	r3, .L144+4
 1201 0126 9B68     		ldr	r3, [r3, #8]
 1202 0128 C3F30313 		ubfx	r3, r3, #4, #4
 1203 012c 084A     		ldr	r2, .L144+8
 1204 012e D35C     		ldrb	r3, [r2, r3]	@ zero_extendqisi2
 1205 0130 D840     		lsrs	r0, r0, r3
 1206 0132 084B     		ldr	r3, .L144+12
 1207 0134 1860     		str	r0, [r3]
 712:Platform/STM32F4xx/drivers/STM32F4xx_HAL_Driver/Src/stm32f4xx_hal_rcc.c **** 
 1208              		.loc 1 712 0
 1209 0136 0020     		movs	r0, #0
 1210 0138 FFF7FEFF 		bl	HAL_InitTick
 1211              	.LVL91:
 714:Platform/STM32F4xx/drivers/STM32F4xx_HAL_Driver/Src/stm32f4xx_hal_rcc.c **** }
 1212              		.loc 1 714 0
 1213 013c 0020     		movs	r0, #0
 1214 013e 73E7     		b	.L117
 1215              	.LVL92:
 1216              	.L131:
 1217              	.LCFI13:
 1218              		.cfi_def_cfa_offset 0
 1219              		.cfi_restore 4
 1220              		.cfi_restore 5
ARM GAS  /tmp/ccSv8R8q.s 			page 40


 1221              		.cfi_restore 6
 1222              		.cfi_restore 14
 588:Platform/STM32F4xx/drivers/STM32F4xx_HAL_Driver/Src/stm32f4xx_hal_rcc.c ****   }
 1223              		.loc 1 588 0
 1224 0140 0120     		movs	r0, #1
 1225              	.LVL93:
 715:Platform/STM32F4xx/drivers/STM32F4xx_HAL_Driver/Src/stm32f4xx_hal_rcc.c **** 
 1226              		.loc 1 715 0
 1227 0142 7047     		bx	lr
 1228              	.LVL94:
 1229              	.L135:
 1230              	.LCFI14:
 1231              		.cfi_def_cfa_offset 16
 1232              		.cfi_offset 4, -16
 1233              		.cfi_offset 5, -12
 1234              		.cfi_offset 6, -8
 1235              		.cfi_offset 14, -4
 662:Platform/STM32F4xx/drivers/STM32F4xx_HAL_Driver/Src/stm32f4xx_hal_rcc.c ****       }
 1236              		.loc 1 662 0
 1237 0144 0120     		movs	r0, #1
 1238 0146 6FE7     		b	.L117
 1239              	.L145:
 1240              		.align	2
 1241              	.L144:
 1242 0148 003C0240 		.word	1073888256
 1243 014c 00380240 		.word	1073887232
 1244 0150 00000000 		.word	AHBPrescTable
 1245 0154 00000000 		.word	SystemCoreClock
 1246              		.cfi_endproc
 1247              	.LFE128:
 1249              		.section	.text.HAL_RCC_GetHCLKFreq,"ax",%progbits
 1250              		.align	1
 1251              		.global	HAL_RCC_GetHCLKFreq
 1252              		.syntax unified
 1253              		.thumb
 1254              		.thumb_func
 1255              		.fpu fpv4-sp-d16
 1257              	HAL_RCC_GetHCLKFreq:
 1258              	.LFB133:
 921:Platform/STM32F4xx/drivers/STM32F4xx_HAL_Driver/Src/stm32f4xx_hal_rcc.c **** 
 922:Platform/STM32F4xx/drivers/STM32F4xx_HAL_Driver/Src/stm32f4xx_hal_rcc.c **** /**
 923:Platform/STM32F4xx/drivers/STM32F4xx_HAL_Driver/Src/stm32f4xx_hal_rcc.c ****   * @brief  Returns the HCLK frequency
 924:Platform/STM32F4xx/drivers/STM32F4xx_HAL_Driver/Src/stm32f4xx_hal_rcc.c ****   * @note   Each time HCLK changes, this function must be called to update the
 925:Platform/STM32F4xx/drivers/STM32F4xx_HAL_Driver/Src/stm32f4xx_hal_rcc.c ****   *         right HCLK value. Otherwise, any configuration based on this function will be incorrect
 926:Platform/STM32F4xx/drivers/STM32F4xx_HAL_Driver/Src/stm32f4xx_hal_rcc.c ****   *
 927:Platform/STM32F4xx/drivers/STM32F4xx_HAL_Driver/Src/stm32f4xx_hal_rcc.c ****   * @note   The SystemCoreClock CMSIS variable is used to store System Clock Frequency
 928:Platform/STM32F4xx/drivers/STM32F4xx_HAL_Driver/Src/stm32f4xx_hal_rcc.c ****   *         and updated within this function
 929:Platform/STM32F4xx/drivers/STM32F4xx_HAL_Driver/Src/stm32f4xx_hal_rcc.c ****   * @retval HCLK frequency
 930:Platform/STM32F4xx/drivers/STM32F4xx_HAL_Driver/Src/stm32f4xx_hal_rcc.c ****   */
 931:Platform/STM32F4xx/drivers/STM32F4xx_HAL_Driver/Src/stm32f4xx_hal_rcc.c **** uint32_t HAL_RCC_GetHCLKFreq(void)
 932:Platform/STM32F4xx/drivers/STM32F4xx_HAL_Driver/Src/stm32f4xx_hal_rcc.c **** {
 1259              		.loc 1 932 0
 1260              		.cfi_startproc
 1261              		@ args = 0, pretend = 0, frame = 0
 1262              		@ frame_needed = 0, uses_anonymous_args = 0
 1263              		@ link register save eliminated.
 933:Platform/STM32F4xx/drivers/STM32F4xx_HAL_Driver/Src/stm32f4xx_hal_rcc.c ****   return SystemCoreClock;
ARM GAS  /tmp/ccSv8R8q.s 			page 41


 934:Platform/STM32F4xx/drivers/STM32F4xx_HAL_Driver/Src/stm32f4xx_hal_rcc.c **** }
 1264              		.loc 1 934 0
 1265 0000 014B     		ldr	r3, .L147
 1266 0002 1868     		ldr	r0, [r3]
 1267 0004 7047     		bx	lr
 1268              	.L148:
 1269 0006 00BF     		.align	2
 1270              	.L147:
 1271 0008 00000000 		.word	SystemCoreClock
 1272              		.cfi_endproc
 1273              	.LFE133:
 1275              		.section	.text.HAL_RCC_GetPCLK1Freq,"ax",%progbits
 1276              		.align	1
 1277              		.global	HAL_RCC_GetPCLK1Freq
 1278              		.syntax unified
 1279              		.thumb
 1280              		.thumb_func
 1281              		.fpu fpv4-sp-d16
 1283              	HAL_RCC_GetPCLK1Freq:
 1284              	.LFB134:
 935:Platform/STM32F4xx/drivers/STM32F4xx_HAL_Driver/Src/stm32f4xx_hal_rcc.c **** 
 936:Platform/STM32F4xx/drivers/STM32F4xx_HAL_Driver/Src/stm32f4xx_hal_rcc.c **** /**
 937:Platform/STM32F4xx/drivers/STM32F4xx_HAL_Driver/Src/stm32f4xx_hal_rcc.c ****   * @brief  Returns the PCLK1 frequency
 938:Platform/STM32F4xx/drivers/STM32F4xx_HAL_Driver/Src/stm32f4xx_hal_rcc.c ****   * @note   Each time PCLK1 changes, this function must be called to update the
 939:Platform/STM32F4xx/drivers/STM32F4xx_HAL_Driver/Src/stm32f4xx_hal_rcc.c ****   *         right PCLK1 value. Otherwise, any configuration based on this function will be incorrec
 940:Platform/STM32F4xx/drivers/STM32F4xx_HAL_Driver/Src/stm32f4xx_hal_rcc.c ****   * @retval PCLK1 frequency
 941:Platform/STM32F4xx/drivers/STM32F4xx_HAL_Driver/Src/stm32f4xx_hal_rcc.c ****   */
 942:Platform/STM32F4xx/drivers/STM32F4xx_HAL_Driver/Src/stm32f4xx_hal_rcc.c **** uint32_t HAL_RCC_GetPCLK1Freq(void)
 943:Platform/STM32F4xx/drivers/STM32F4xx_HAL_Driver/Src/stm32f4xx_hal_rcc.c **** {
 1285              		.loc 1 943 0
 1286              		.cfi_startproc
 1287              		@ args = 0, pretend = 0, frame = 0
 1288              		@ frame_needed = 0, uses_anonymous_args = 0
 1289 0000 08B5     		push	{r3, lr}
 1290              	.LCFI15:
 1291              		.cfi_def_cfa_offset 8
 1292              		.cfi_offset 3, -8
 1293              		.cfi_offset 14, -4
 944:Platform/STM32F4xx/drivers/STM32F4xx_HAL_Driver/Src/stm32f4xx_hal_rcc.c ****   /* Get HCLK source and Compute PCLK1 frequency ---------------------------*/
 945:Platform/STM32F4xx/drivers/STM32F4xx_HAL_Driver/Src/stm32f4xx_hal_rcc.c ****   return (HAL_RCC_GetHCLKFreq() >> APBPrescTable[(RCC->CFGR & RCC_CFGR_PPRE1)>> RCC_CFGR_PPRE1_Pos]
 1294              		.loc 1 945 0
 1295 0002 FFF7FEFF 		bl	HAL_RCC_GetHCLKFreq
 1296              	.LVL95:
 1297 0006 044B     		ldr	r3, .L151
 1298 0008 9B68     		ldr	r3, [r3, #8]
 1299 000a C3F38223 		ubfx	r3, r3, #10, #3
 1300 000e 034A     		ldr	r2, .L151+4
 1301 0010 D35C     		ldrb	r3, [r2, r3]	@ zero_extendqisi2
 946:Platform/STM32F4xx/drivers/STM32F4xx_HAL_Driver/Src/stm32f4xx_hal_rcc.c **** }
 1302              		.loc 1 946 0
 1303 0012 D840     		lsrs	r0, r0, r3
 1304 0014 08BD     		pop	{r3, pc}
 1305              	.L152:
 1306 0016 00BF     		.align	2
 1307              	.L151:
 1308 0018 00380240 		.word	1073887232
 1309 001c 00000000 		.word	APBPrescTable
ARM GAS  /tmp/ccSv8R8q.s 			page 42


 1310              		.cfi_endproc
 1311              	.LFE134:
 1313              		.section	.text.HAL_RCC_GetPCLK2Freq,"ax",%progbits
 1314              		.align	1
 1315              		.global	HAL_RCC_GetPCLK2Freq
 1316              		.syntax unified
 1317              		.thumb
 1318              		.thumb_func
 1319              		.fpu fpv4-sp-d16
 1321              	HAL_RCC_GetPCLK2Freq:
 1322              	.LFB135:
 947:Platform/STM32F4xx/drivers/STM32F4xx_HAL_Driver/Src/stm32f4xx_hal_rcc.c **** 
 948:Platform/STM32F4xx/drivers/STM32F4xx_HAL_Driver/Src/stm32f4xx_hal_rcc.c **** /**
 949:Platform/STM32F4xx/drivers/STM32F4xx_HAL_Driver/Src/stm32f4xx_hal_rcc.c ****   * @brief  Returns the PCLK2 frequency
 950:Platform/STM32F4xx/drivers/STM32F4xx_HAL_Driver/Src/stm32f4xx_hal_rcc.c ****   * @note   Each time PCLK2 changes, this function must be called to update the
 951:Platform/STM32F4xx/drivers/STM32F4xx_HAL_Driver/Src/stm32f4xx_hal_rcc.c ****   *         right PCLK2 value. Otherwise, any configuration based on this function will be incorrec
 952:Platform/STM32F4xx/drivers/STM32F4xx_HAL_Driver/Src/stm32f4xx_hal_rcc.c ****   * @retval PCLK2 frequency
 953:Platform/STM32F4xx/drivers/STM32F4xx_HAL_Driver/Src/stm32f4xx_hal_rcc.c ****   */
 954:Platform/STM32F4xx/drivers/STM32F4xx_HAL_Driver/Src/stm32f4xx_hal_rcc.c **** uint32_t HAL_RCC_GetPCLK2Freq(void)
 955:Platform/STM32F4xx/drivers/STM32F4xx_HAL_Driver/Src/stm32f4xx_hal_rcc.c **** {
 1323              		.loc 1 955 0
 1324              		.cfi_startproc
 1325              		@ args = 0, pretend = 0, frame = 0
 1326              		@ frame_needed = 0, uses_anonymous_args = 0
 1327 0000 08B5     		push	{r3, lr}
 1328              	.LCFI16:
 1329              		.cfi_def_cfa_offset 8
 1330              		.cfi_offset 3, -8
 1331              		.cfi_offset 14, -4
 956:Platform/STM32F4xx/drivers/STM32F4xx_HAL_Driver/Src/stm32f4xx_hal_rcc.c ****   /* Get HCLK source and Compute PCLK2 frequency ---------------------------*/
 957:Platform/STM32F4xx/drivers/STM32F4xx_HAL_Driver/Src/stm32f4xx_hal_rcc.c ****   return (HAL_RCC_GetHCLKFreq()>> APBPrescTable[(RCC->CFGR & RCC_CFGR_PPRE2)>> RCC_CFGR_PPRE2_Pos])
 1332              		.loc 1 957 0
 1333 0002 FFF7FEFF 		bl	HAL_RCC_GetHCLKFreq
 1334              	.LVL96:
 1335 0006 044B     		ldr	r3, .L155
 1336 0008 9B68     		ldr	r3, [r3, #8]
 1337 000a C3F34233 		ubfx	r3, r3, #13, #3
 1338 000e 034A     		ldr	r2, .L155+4
 1339 0010 D35C     		ldrb	r3, [r2, r3]	@ zero_extendqisi2
 958:Platform/STM32F4xx/drivers/STM32F4xx_HAL_Driver/Src/stm32f4xx_hal_rcc.c **** }
 1340              		.loc 1 958 0
 1341 0012 D840     		lsrs	r0, r0, r3
 1342 0014 08BD     		pop	{r3, pc}
 1343              	.L156:
 1344 0016 00BF     		.align	2
 1345              	.L155:
 1346 0018 00380240 		.word	1073887232
 1347 001c 00000000 		.word	APBPrescTable
 1348              		.cfi_endproc
 1349              	.LFE135:
 1351              		.section	.text.HAL_RCC_GetOscConfig,"ax",%progbits
 1352              		.align	1
 1353              		.weak	HAL_RCC_GetOscConfig
 1354              		.syntax unified
 1355              		.thumb
 1356              		.thumb_func
 1357              		.fpu fpv4-sp-d16
ARM GAS  /tmp/ccSv8R8q.s 			page 43


 1359              	HAL_RCC_GetOscConfig:
 1360              	.LFB136:
 959:Platform/STM32F4xx/drivers/STM32F4xx_HAL_Driver/Src/stm32f4xx_hal_rcc.c **** 
 960:Platform/STM32F4xx/drivers/STM32F4xx_HAL_Driver/Src/stm32f4xx_hal_rcc.c **** /**
 961:Platform/STM32F4xx/drivers/STM32F4xx_HAL_Driver/Src/stm32f4xx_hal_rcc.c ****   * @brief  Configures the RCC_OscInitStruct according to the internal
 962:Platform/STM32F4xx/drivers/STM32F4xx_HAL_Driver/Src/stm32f4xx_hal_rcc.c ****   * RCC configuration registers.
 963:Platform/STM32F4xx/drivers/STM32F4xx_HAL_Driver/Src/stm32f4xx_hal_rcc.c ****   * @param  RCC_OscInitStruct pointer to an RCC_OscInitTypeDef structure that
 964:Platform/STM32F4xx/drivers/STM32F4xx_HAL_Driver/Src/stm32f4xx_hal_rcc.c ****   * will be configured.
 965:Platform/STM32F4xx/drivers/STM32F4xx_HAL_Driver/Src/stm32f4xx_hal_rcc.c ****   * @retval None
 966:Platform/STM32F4xx/drivers/STM32F4xx_HAL_Driver/Src/stm32f4xx_hal_rcc.c ****   */
 967:Platform/STM32F4xx/drivers/STM32F4xx_HAL_Driver/Src/stm32f4xx_hal_rcc.c **** __weak void HAL_RCC_GetOscConfig(RCC_OscInitTypeDef  *RCC_OscInitStruct)
 968:Platform/STM32F4xx/drivers/STM32F4xx_HAL_Driver/Src/stm32f4xx_hal_rcc.c **** {
 1361              		.loc 1 968 0
 1362              		.cfi_startproc
 1363              		@ args = 0, pretend = 0, frame = 0
 1364              		@ frame_needed = 0, uses_anonymous_args = 0
 1365              		@ link register save eliminated.
 1366              	.LVL97:
 969:Platform/STM32F4xx/drivers/STM32F4xx_HAL_Driver/Src/stm32f4xx_hal_rcc.c ****   /* Set all possible values for the Oscillator type parameter ---------------*/
 970:Platform/STM32F4xx/drivers/STM32F4xx_HAL_Driver/Src/stm32f4xx_hal_rcc.c ****   RCC_OscInitStruct->OscillatorType = RCC_OSCILLATORTYPE_HSE | RCC_OSCILLATORTYPE_HSI | RCC_OSCILLA
 1367              		.loc 1 970 0
 1368 0000 0F23     		movs	r3, #15
 1369 0002 0360     		str	r3, [r0]
 971:Platform/STM32F4xx/drivers/STM32F4xx_HAL_Driver/Src/stm32f4xx_hal_rcc.c **** 
 972:Platform/STM32F4xx/drivers/STM32F4xx_HAL_Driver/Src/stm32f4xx_hal_rcc.c ****   /* Get the HSE configuration -----------------------------------------------*/
 973:Platform/STM32F4xx/drivers/STM32F4xx_HAL_Driver/Src/stm32f4xx_hal_rcc.c ****   if((RCC->CR &RCC_CR_HSEBYP) == RCC_CR_HSEBYP)
 1370              		.loc 1 973 0
 1371 0004 304B     		ldr	r3, .L171
 1372 0006 1B68     		ldr	r3, [r3]
 1373 0008 13F4802F 		tst	r3, #262144
 1374 000c 3BD0     		beq	.L158
 974:Platform/STM32F4xx/drivers/STM32F4xx_HAL_Driver/Src/stm32f4xx_hal_rcc.c ****   {
 975:Platform/STM32F4xx/drivers/STM32F4xx_HAL_Driver/Src/stm32f4xx_hal_rcc.c ****     RCC_OscInitStruct->HSEState = RCC_HSE_BYPASS;
 1375              		.loc 1 975 0
 1376 000e 4FF4A023 		mov	r3, #327680
 1377 0012 4360     		str	r3, [r0, #4]
 1378              	.L159:
 976:Platform/STM32F4xx/drivers/STM32F4xx_HAL_Driver/Src/stm32f4xx_hal_rcc.c ****   }
 977:Platform/STM32F4xx/drivers/STM32F4xx_HAL_Driver/Src/stm32f4xx_hal_rcc.c ****   else if((RCC->CR &RCC_CR_HSEON) == RCC_CR_HSEON)
 978:Platform/STM32F4xx/drivers/STM32F4xx_HAL_Driver/Src/stm32f4xx_hal_rcc.c ****   {
 979:Platform/STM32F4xx/drivers/STM32F4xx_HAL_Driver/Src/stm32f4xx_hal_rcc.c ****     RCC_OscInitStruct->HSEState = RCC_HSE_ON;
 980:Platform/STM32F4xx/drivers/STM32F4xx_HAL_Driver/Src/stm32f4xx_hal_rcc.c ****   }
 981:Platform/STM32F4xx/drivers/STM32F4xx_HAL_Driver/Src/stm32f4xx_hal_rcc.c ****   else
 982:Platform/STM32F4xx/drivers/STM32F4xx_HAL_Driver/Src/stm32f4xx_hal_rcc.c ****   {
 983:Platform/STM32F4xx/drivers/STM32F4xx_HAL_Driver/Src/stm32f4xx_hal_rcc.c ****     RCC_OscInitStruct->HSEState = RCC_HSE_OFF;
 984:Platform/STM32F4xx/drivers/STM32F4xx_HAL_Driver/Src/stm32f4xx_hal_rcc.c ****   }
 985:Platform/STM32F4xx/drivers/STM32F4xx_HAL_Driver/Src/stm32f4xx_hal_rcc.c **** 
 986:Platform/STM32F4xx/drivers/STM32F4xx_HAL_Driver/Src/stm32f4xx_hal_rcc.c ****   /* Get the HSI configuration -----------------------------------------------*/
 987:Platform/STM32F4xx/drivers/STM32F4xx_HAL_Driver/Src/stm32f4xx_hal_rcc.c ****   if((RCC->CR &RCC_CR_HSION) == RCC_CR_HSION)
 1379              		.loc 1 987 0
 1380 0014 2C4B     		ldr	r3, .L171
 1381 0016 1B68     		ldr	r3, [r3]
 1382 0018 13F0010F 		tst	r3, #1
 1383 001c 3FD0     		beq	.L161
 988:Platform/STM32F4xx/drivers/STM32F4xx_HAL_Driver/Src/stm32f4xx_hal_rcc.c ****   {
 989:Platform/STM32F4xx/drivers/STM32F4xx_HAL_Driver/Src/stm32f4xx_hal_rcc.c ****     RCC_OscInitStruct->HSIState = RCC_HSI_ON;
 1384              		.loc 1 989 0
ARM GAS  /tmp/ccSv8R8q.s 			page 44


 1385 001e 0123     		movs	r3, #1
 1386 0020 C360     		str	r3, [r0, #12]
 1387              	.L162:
 990:Platform/STM32F4xx/drivers/STM32F4xx_HAL_Driver/Src/stm32f4xx_hal_rcc.c ****   }
 991:Platform/STM32F4xx/drivers/STM32F4xx_HAL_Driver/Src/stm32f4xx_hal_rcc.c ****   else
 992:Platform/STM32F4xx/drivers/STM32F4xx_HAL_Driver/Src/stm32f4xx_hal_rcc.c ****   {
 993:Platform/STM32F4xx/drivers/STM32F4xx_HAL_Driver/Src/stm32f4xx_hal_rcc.c ****     RCC_OscInitStruct->HSIState = RCC_HSI_OFF;
 994:Platform/STM32F4xx/drivers/STM32F4xx_HAL_Driver/Src/stm32f4xx_hal_rcc.c ****   }
 995:Platform/STM32F4xx/drivers/STM32F4xx_HAL_Driver/Src/stm32f4xx_hal_rcc.c **** 
 996:Platform/STM32F4xx/drivers/STM32F4xx_HAL_Driver/Src/stm32f4xx_hal_rcc.c ****   RCC_OscInitStruct->HSICalibrationValue = (uint32_t)((RCC->CR &RCC_CR_HSITRIM) >> RCC_CR_HSITRIM_P
 1388              		.loc 1 996 0
 1389 0022 294A     		ldr	r2, .L171
 1390 0024 1368     		ldr	r3, [r2]
 1391 0026 C3F3C403 		ubfx	r3, r3, #3, #5
 1392 002a 0361     		str	r3, [r0, #16]
 997:Platform/STM32F4xx/drivers/STM32F4xx_HAL_Driver/Src/stm32f4xx_hal_rcc.c **** 
 998:Platform/STM32F4xx/drivers/STM32F4xx_HAL_Driver/Src/stm32f4xx_hal_rcc.c ****   /* Get the LSE configuration -----------------------------------------------*/
 999:Platform/STM32F4xx/drivers/STM32F4xx_HAL_Driver/Src/stm32f4xx_hal_rcc.c ****   if((RCC->BDCR &RCC_BDCR_LSEBYP) == RCC_BDCR_LSEBYP)
 1393              		.loc 1 999 0
 1394 002c 136F     		ldr	r3, [r2, #112]
 1395 002e 13F0040F 		tst	r3, #4
 1396 0032 37D0     		beq	.L163
1000:Platform/STM32F4xx/drivers/STM32F4xx_HAL_Driver/Src/stm32f4xx_hal_rcc.c ****   {
1001:Platform/STM32F4xx/drivers/STM32F4xx_HAL_Driver/Src/stm32f4xx_hal_rcc.c ****     RCC_OscInitStruct->LSEState = RCC_LSE_BYPASS;
 1397              		.loc 1 1001 0
 1398 0034 0523     		movs	r3, #5
 1399 0036 8360     		str	r3, [r0, #8]
 1400              	.L164:
1002:Platform/STM32F4xx/drivers/STM32F4xx_HAL_Driver/Src/stm32f4xx_hal_rcc.c ****   }
1003:Platform/STM32F4xx/drivers/STM32F4xx_HAL_Driver/Src/stm32f4xx_hal_rcc.c ****   else if((RCC->BDCR &RCC_BDCR_LSEON) == RCC_BDCR_LSEON)
1004:Platform/STM32F4xx/drivers/STM32F4xx_HAL_Driver/Src/stm32f4xx_hal_rcc.c ****   {
1005:Platform/STM32F4xx/drivers/STM32F4xx_HAL_Driver/Src/stm32f4xx_hal_rcc.c ****     RCC_OscInitStruct->LSEState = RCC_LSE_ON;
1006:Platform/STM32F4xx/drivers/STM32F4xx_HAL_Driver/Src/stm32f4xx_hal_rcc.c ****   }
1007:Platform/STM32F4xx/drivers/STM32F4xx_HAL_Driver/Src/stm32f4xx_hal_rcc.c ****   else
1008:Platform/STM32F4xx/drivers/STM32F4xx_HAL_Driver/Src/stm32f4xx_hal_rcc.c ****   {
1009:Platform/STM32F4xx/drivers/STM32F4xx_HAL_Driver/Src/stm32f4xx_hal_rcc.c ****     RCC_OscInitStruct->LSEState = RCC_LSE_OFF;
1010:Platform/STM32F4xx/drivers/STM32F4xx_HAL_Driver/Src/stm32f4xx_hal_rcc.c ****   }
1011:Platform/STM32F4xx/drivers/STM32F4xx_HAL_Driver/Src/stm32f4xx_hal_rcc.c **** 
1012:Platform/STM32F4xx/drivers/STM32F4xx_HAL_Driver/Src/stm32f4xx_hal_rcc.c ****   /* Get the LSI configuration -----------------------------------------------*/
1013:Platform/STM32F4xx/drivers/STM32F4xx_HAL_Driver/Src/stm32f4xx_hal_rcc.c ****   if((RCC->CSR &RCC_CSR_LSION) == RCC_CSR_LSION)
 1401              		.loc 1 1013 0
 1402 0038 234B     		ldr	r3, .L171
 1403 003a 5B6F     		ldr	r3, [r3, #116]
 1404 003c 13F0010F 		tst	r3, #1
 1405 0040 3BD0     		beq	.L166
1014:Platform/STM32F4xx/drivers/STM32F4xx_HAL_Driver/Src/stm32f4xx_hal_rcc.c ****   {
1015:Platform/STM32F4xx/drivers/STM32F4xx_HAL_Driver/Src/stm32f4xx_hal_rcc.c ****     RCC_OscInitStruct->LSIState = RCC_LSI_ON;
 1406              		.loc 1 1015 0
 1407 0042 0123     		movs	r3, #1
 1408 0044 4361     		str	r3, [r0, #20]
 1409              	.L167:
1016:Platform/STM32F4xx/drivers/STM32F4xx_HAL_Driver/Src/stm32f4xx_hal_rcc.c ****   }
1017:Platform/STM32F4xx/drivers/STM32F4xx_HAL_Driver/Src/stm32f4xx_hal_rcc.c ****   else
1018:Platform/STM32F4xx/drivers/STM32F4xx_HAL_Driver/Src/stm32f4xx_hal_rcc.c ****   {
1019:Platform/STM32F4xx/drivers/STM32F4xx_HAL_Driver/Src/stm32f4xx_hal_rcc.c ****     RCC_OscInitStruct->LSIState = RCC_LSI_OFF;
1020:Platform/STM32F4xx/drivers/STM32F4xx_HAL_Driver/Src/stm32f4xx_hal_rcc.c ****   }
1021:Platform/STM32F4xx/drivers/STM32F4xx_HAL_Driver/Src/stm32f4xx_hal_rcc.c **** 
ARM GAS  /tmp/ccSv8R8q.s 			page 45


1022:Platform/STM32F4xx/drivers/STM32F4xx_HAL_Driver/Src/stm32f4xx_hal_rcc.c ****   /* Get the PLL configuration -----------------------------------------------*/
1023:Platform/STM32F4xx/drivers/STM32F4xx_HAL_Driver/Src/stm32f4xx_hal_rcc.c ****   if((RCC->CR &RCC_CR_PLLON) == RCC_CR_PLLON)
 1410              		.loc 1 1023 0
 1411 0046 204B     		ldr	r3, .L171
 1412 0048 1B68     		ldr	r3, [r3]
 1413 004a 13F0807F 		tst	r3, #16777216
 1414 004e 37D1     		bne	.L170
1024:Platform/STM32F4xx/drivers/STM32F4xx_HAL_Driver/Src/stm32f4xx_hal_rcc.c ****   {
1025:Platform/STM32F4xx/drivers/STM32F4xx_HAL_Driver/Src/stm32f4xx_hal_rcc.c ****     RCC_OscInitStruct->PLL.PLLState = RCC_PLL_ON;
1026:Platform/STM32F4xx/drivers/STM32F4xx_HAL_Driver/Src/stm32f4xx_hal_rcc.c ****   }
1027:Platform/STM32F4xx/drivers/STM32F4xx_HAL_Driver/Src/stm32f4xx_hal_rcc.c ****   else
1028:Platform/STM32F4xx/drivers/STM32F4xx_HAL_Driver/Src/stm32f4xx_hal_rcc.c ****   {
1029:Platform/STM32F4xx/drivers/STM32F4xx_HAL_Driver/Src/stm32f4xx_hal_rcc.c ****     RCC_OscInitStruct->PLL.PLLState = RCC_PLL_OFF;
 1415              		.loc 1 1029 0
 1416 0050 0123     		movs	r3, #1
 1417 0052 8361     		str	r3, [r0, #24]
 1418              	.L169:
1030:Platform/STM32F4xx/drivers/STM32F4xx_HAL_Driver/Src/stm32f4xx_hal_rcc.c ****   }
1031:Platform/STM32F4xx/drivers/STM32F4xx_HAL_Driver/Src/stm32f4xx_hal_rcc.c ****   RCC_OscInitStruct->PLL.PLLSource = (uint32_t)(RCC->PLLCFGR & RCC_PLLCFGR_PLLSRC);
 1419              		.loc 1 1031 0
 1420 0054 1C4A     		ldr	r2, .L171
 1421 0056 5368     		ldr	r3, [r2, #4]
 1422 0058 03F48003 		and	r3, r3, #4194304
 1423 005c C361     		str	r3, [r0, #28]
1032:Platform/STM32F4xx/drivers/STM32F4xx_HAL_Driver/Src/stm32f4xx_hal_rcc.c ****   RCC_OscInitStruct->PLL.PLLM = (uint32_t)(RCC->PLLCFGR & RCC_PLLCFGR_PLLM);
 1424              		.loc 1 1032 0
 1425 005e 5368     		ldr	r3, [r2, #4]
 1426 0060 03F03F03 		and	r3, r3, #63
 1427 0064 0362     		str	r3, [r0, #32]
1033:Platform/STM32F4xx/drivers/STM32F4xx_HAL_Driver/Src/stm32f4xx_hal_rcc.c ****   RCC_OscInitStruct->PLL.PLLN = (uint32_t)((RCC->PLLCFGR & RCC_PLLCFGR_PLLN) >> RCC_PLLCFGR_PLLN_Po
 1428              		.loc 1 1033 0
 1429 0066 5368     		ldr	r3, [r2, #4]
 1430 0068 C3F38813 		ubfx	r3, r3, #6, #9
 1431 006c 4362     		str	r3, [r0, #36]
1034:Platform/STM32F4xx/drivers/STM32F4xx_HAL_Driver/Src/stm32f4xx_hal_rcc.c ****   RCC_OscInitStruct->PLL.PLLP = (uint32_t)((((RCC->PLLCFGR & RCC_PLLCFGR_PLLP) + RCC_PLLCFGR_PLLP_0
 1432              		.loc 1 1034 0
 1433 006e 5368     		ldr	r3, [r2, #4]
 1434 0070 03F44033 		and	r3, r3, #196608
 1435 0074 03F58033 		add	r3, r3, #65536
 1436 0078 DB0B     		lsrs	r3, r3, #15
 1437 007a 8362     		str	r3, [r0, #40]
1035:Platform/STM32F4xx/drivers/STM32F4xx_HAL_Driver/Src/stm32f4xx_hal_rcc.c ****   RCC_OscInitStruct->PLL.PLLQ = (uint32_t)((RCC->PLLCFGR & RCC_PLLCFGR_PLLQ) >> RCC_PLLCFGR_PLLQ_Po
 1438              		.loc 1 1035 0
 1439 007c 5368     		ldr	r3, [r2, #4]
 1440 007e C3F30363 		ubfx	r3, r3, #24, #4
 1441 0082 C362     		str	r3, [r0, #44]
1036:Platform/STM32F4xx/drivers/STM32F4xx_HAL_Driver/Src/stm32f4xx_hal_rcc.c **** }
 1442              		.loc 1 1036 0
 1443 0084 7047     		bx	lr
 1444              	.L158:
 977:Platform/STM32F4xx/drivers/STM32F4xx_HAL_Driver/Src/stm32f4xx_hal_rcc.c ****   {
 1445              		.loc 1 977 0
 1446 0086 104B     		ldr	r3, .L171
 1447 0088 1B68     		ldr	r3, [r3]
 1448 008a 13F4803F 		tst	r3, #65536
 1449 008e 03D0     		beq	.L160
 979:Platform/STM32F4xx/drivers/STM32F4xx_HAL_Driver/Src/stm32f4xx_hal_rcc.c ****   }
ARM GAS  /tmp/ccSv8R8q.s 			page 46


 1450              		.loc 1 979 0
 1451 0090 4FF48033 		mov	r3, #65536
 1452 0094 4360     		str	r3, [r0, #4]
 1453 0096 BDE7     		b	.L159
 1454              	.L160:
 983:Platform/STM32F4xx/drivers/STM32F4xx_HAL_Driver/Src/stm32f4xx_hal_rcc.c ****   }
 1455              		.loc 1 983 0
 1456 0098 0023     		movs	r3, #0
 1457 009a 4360     		str	r3, [r0, #4]
 1458 009c BAE7     		b	.L159
 1459              	.L161:
 993:Platform/STM32F4xx/drivers/STM32F4xx_HAL_Driver/Src/stm32f4xx_hal_rcc.c ****   }
 1460              		.loc 1 993 0
 1461 009e 0023     		movs	r3, #0
 1462 00a0 C360     		str	r3, [r0, #12]
 1463 00a2 BEE7     		b	.L162
 1464              	.L163:
1003:Platform/STM32F4xx/drivers/STM32F4xx_HAL_Driver/Src/stm32f4xx_hal_rcc.c ****   {
 1465              		.loc 1 1003 0
 1466 00a4 084B     		ldr	r3, .L171
 1467 00a6 1B6F     		ldr	r3, [r3, #112]
 1468 00a8 13F0010F 		tst	r3, #1
 1469 00ac 02D0     		beq	.L165
1005:Platform/STM32F4xx/drivers/STM32F4xx_HAL_Driver/Src/stm32f4xx_hal_rcc.c ****   }
 1470              		.loc 1 1005 0
 1471 00ae 0123     		movs	r3, #1
 1472 00b0 8360     		str	r3, [r0, #8]
 1473 00b2 C1E7     		b	.L164
 1474              	.L165:
1009:Platform/STM32F4xx/drivers/STM32F4xx_HAL_Driver/Src/stm32f4xx_hal_rcc.c ****   }
 1475              		.loc 1 1009 0
 1476 00b4 0023     		movs	r3, #0
 1477 00b6 8360     		str	r3, [r0, #8]
 1478 00b8 BEE7     		b	.L164
 1479              	.L166:
1019:Platform/STM32F4xx/drivers/STM32F4xx_HAL_Driver/Src/stm32f4xx_hal_rcc.c ****   }
 1480              		.loc 1 1019 0
 1481 00ba 0023     		movs	r3, #0
 1482 00bc 4361     		str	r3, [r0, #20]
 1483 00be C2E7     		b	.L167
 1484              	.L170:
1025:Platform/STM32F4xx/drivers/STM32F4xx_HAL_Driver/Src/stm32f4xx_hal_rcc.c ****   }
 1485              		.loc 1 1025 0
 1486 00c0 0223     		movs	r3, #2
 1487 00c2 8361     		str	r3, [r0, #24]
 1488 00c4 C6E7     		b	.L169
 1489              	.L172:
 1490 00c6 00BF     		.align	2
 1491              	.L171:
 1492 00c8 00380240 		.word	1073887232
 1493              		.cfi_endproc
 1494              	.LFE136:
 1496              		.section	.text.HAL_RCC_GetClockConfig,"ax",%progbits
 1497              		.align	1
 1498              		.global	HAL_RCC_GetClockConfig
 1499              		.syntax unified
 1500              		.thumb
ARM GAS  /tmp/ccSv8R8q.s 			page 47


 1501              		.thumb_func
 1502              		.fpu fpv4-sp-d16
 1504              	HAL_RCC_GetClockConfig:
 1505              	.LFB137:
1037:Platform/STM32F4xx/drivers/STM32F4xx_HAL_Driver/Src/stm32f4xx_hal_rcc.c **** 
1038:Platform/STM32F4xx/drivers/STM32F4xx_HAL_Driver/Src/stm32f4xx_hal_rcc.c **** /**
1039:Platform/STM32F4xx/drivers/STM32F4xx_HAL_Driver/Src/stm32f4xx_hal_rcc.c ****   * @brief  Configures the RCC_ClkInitStruct according to the internal
1040:Platform/STM32F4xx/drivers/STM32F4xx_HAL_Driver/Src/stm32f4xx_hal_rcc.c ****   * RCC configuration registers.
1041:Platform/STM32F4xx/drivers/STM32F4xx_HAL_Driver/Src/stm32f4xx_hal_rcc.c ****   * @param  RCC_ClkInitStruct pointer to an RCC_ClkInitTypeDef structure that
1042:Platform/STM32F4xx/drivers/STM32F4xx_HAL_Driver/Src/stm32f4xx_hal_rcc.c ****   * will be configured.
1043:Platform/STM32F4xx/drivers/STM32F4xx_HAL_Driver/Src/stm32f4xx_hal_rcc.c ****   * @param  pFLatency Pointer on the Flash Latency.
1044:Platform/STM32F4xx/drivers/STM32F4xx_HAL_Driver/Src/stm32f4xx_hal_rcc.c ****   * @retval None
1045:Platform/STM32F4xx/drivers/STM32F4xx_HAL_Driver/Src/stm32f4xx_hal_rcc.c ****   */
1046:Platform/STM32F4xx/drivers/STM32F4xx_HAL_Driver/Src/stm32f4xx_hal_rcc.c **** void HAL_RCC_GetClockConfig(RCC_ClkInitTypeDef  *RCC_ClkInitStruct, uint32_t *pFLatency)
1047:Platform/STM32F4xx/drivers/STM32F4xx_HAL_Driver/Src/stm32f4xx_hal_rcc.c **** {
 1506              		.loc 1 1047 0
 1507              		.cfi_startproc
 1508              		@ args = 0, pretend = 0, frame = 0
 1509              		@ frame_needed = 0, uses_anonymous_args = 0
 1510              		@ link register save eliminated.
 1511              	.LVL98:
1048:Platform/STM32F4xx/drivers/STM32F4xx_HAL_Driver/Src/stm32f4xx_hal_rcc.c ****   /* Set all possible values for the Clock type parameter --------------------*/
1049:Platform/STM32F4xx/drivers/STM32F4xx_HAL_Driver/Src/stm32f4xx_hal_rcc.c ****   RCC_ClkInitStruct->ClockType = RCC_CLOCKTYPE_SYSCLK | RCC_CLOCKTYPE_HCLK | RCC_CLOCKTYPE_PCLK1 | 
 1512              		.loc 1 1049 0
 1513 0000 0F23     		movs	r3, #15
 1514 0002 0360     		str	r3, [r0]
1050:Platform/STM32F4xx/drivers/STM32F4xx_HAL_Driver/Src/stm32f4xx_hal_rcc.c **** 
1051:Platform/STM32F4xx/drivers/STM32F4xx_HAL_Driver/Src/stm32f4xx_hal_rcc.c ****   /* Get the SYSCLK configuration --------------------------------------------*/
1052:Platform/STM32F4xx/drivers/STM32F4xx_HAL_Driver/Src/stm32f4xx_hal_rcc.c ****   RCC_ClkInitStruct->SYSCLKSource = (uint32_t)(RCC->CFGR & RCC_CFGR_SW);
 1515              		.loc 1 1052 0
 1516 0004 0B4B     		ldr	r3, .L174
 1517 0006 9A68     		ldr	r2, [r3, #8]
 1518 0008 02F00302 		and	r2, r2, #3
 1519 000c 4260     		str	r2, [r0, #4]
1053:Platform/STM32F4xx/drivers/STM32F4xx_HAL_Driver/Src/stm32f4xx_hal_rcc.c **** 
1054:Platform/STM32F4xx/drivers/STM32F4xx_HAL_Driver/Src/stm32f4xx_hal_rcc.c ****   /* Get the HCLK configuration ----------------------------------------------*/
1055:Platform/STM32F4xx/drivers/STM32F4xx_HAL_Driver/Src/stm32f4xx_hal_rcc.c ****   RCC_ClkInitStruct->AHBCLKDivider = (uint32_t)(RCC->CFGR & RCC_CFGR_HPRE);
 1520              		.loc 1 1055 0
 1521 000e 9A68     		ldr	r2, [r3, #8]
 1522 0010 02F0F002 		and	r2, r2, #240
 1523 0014 8260     		str	r2, [r0, #8]
1056:Platform/STM32F4xx/drivers/STM32F4xx_HAL_Driver/Src/stm32f4xx_hal_rcc.c **** 
1057:Platform/STM32F4xx/drivers/STM32F4xx_HAL_Driver/Src/stm32f4xx_hal_rcc.c ****   /* Get the APB1 configuration ----------------------------------------------*/
1058:Platform/STM32F4xx/drivers/STM32F4xx_HAL_Driver/Src/stm32f4xx_hal_rcc.c ****   RCC_ClkInitStruct->APB1CLKDivider = (uint32_t)(RCC->CFGR & RCC_CFGR_PPRE1);
 1524              		.loc 1 1058 0
 1525 0016 9A68     		ldr	r2, [r3, #8]
 1526 0018 02F4E052 		and	r2, r2, #7168
 1527 001c C260     		str	r2, [r0, #12]
1059:Platform/STM32F4xx/drivers/STM32F4xx_HAL_Driver/Src/stm32f4xx_hal_rcc.c **** 
1060:Platform/STM32F4xx/drivers/STM32F4xx_HAL_Driver/Src/stm32f4xx_hal_rcc.c ****   /* Get the APB2 configuration ----------------------------------------------*/
1061:Platform/STM32F4xx/drivers/STM32F4xx_HAL_Driver/Src/stm32f4xx_hal_rcc.c ****   RCC_ClkInitStruct->APB2CLKDivider = (uint32_t)((RCC->CFGR & RCC_CFGR_PPRE2) >> 3U);
 1528              		.loc 1 1061 0
 1529 001e 9B68     		ldr	r3, [r3, #8]
 1530 0020 DB08     		lsrs	r3, r3, #3
 1531 0022 03F4E053 		and	r3, r3, #7168
 1532 0026 0361     		str	r3, [r0, #16]
1062:Platform/STM32F4xx/drivers/STM32F4xx_HAL_Driver/Src/stm32f4xx_hal_rcc.c **** 
ARM GAS  /tmp/ccSv8R8q.s 			page 48


1063:Platform/STM32F4xx/drivers/STM32F4xx_HAL_Driver/Src/stm32f4xx_hal_rcc.c ****   /* Get the Flash Wait State (Latency) configuration ------------------------*/
1064:Platform/STM32F4xx/drivers/STM32F4xx_HAL_Driver/Src/stm32f4xx_hal_rcc.c ****   *pFLatency = (uint32_t)(FLASH->ACR & FLASH_ACR_LATENCY);
 1533              		.loc 1 1064 0
 1534 0028 034B     		ldr	r3, .L174+4
 1535 002a 1B68     		ldr	r3, [r3]
 1536 002c 03F00F03 		and	r3, r3, #15
 1537 0030 0B60     		str	r3, [r1]
1065:Platform/STM32F4xx/drivers/STM32F4xx_HAL_Driver/Src/stm32f4xx_hal_rcc.c **** }
 1538              		.loc 1 1065 0
 1539 0032 7047     		bx	lr
 1540              	.L175:
 1541              		.align	2
 1542              	.L174:
 1543 0034 00380240 		.word	1073887232
 1544 0038 003C0240 		.word	1073888256
 1545              		.cfi_endproc
 1546              	.LFE137:
 1548              		.section	.text.HAL_RCC_CSSCallback,"ax",%progbits
 1549              		.align	1
 1550              		.weak	HAL_RCC_CSSCallback
 1551              		.syntax unified
 1552              		.thumb
 1553              		.thumb_func
 1554              		.fpu fpv4-sp-d16
 1556              	HAL_RCC_CSSCallback:
 1557              	.LFB139:
1066:Platform/STM32F4xx/drivers/STM32F4xx_HAL_Driver/Src/stm32f4xx_hal_rcc.c **** 
1067:Platform/STM32F4xx/drivers/STM32F4xx_HAL_Driver/Src/stm32f4xx_hal_rcc.c **** /**
1068:Platform/STM32F4xx/drivers/STM32F4xx_HAL_Driver/Src/stm32f4xx_hal_rcc.c ****   * @brief This function handles the RCC CSS interrupt request.
1069:Platform/STM32F4xx/drivers/STM32F4xx_HAL_Driver/Src/stm32f4xx_hal_rcc.c ****   * @note This API should be called under the NMI_Handler().
1070:Platform/STM32F4xx/drivers/STM32F4xx_HAL_Driver/Src/stm32f4xx_hal_rcc.c ****   * @retval None
1071:Platform/STM32F4xx/drivers/STM32F4xx_HAL_Driver/Src/stm32f4xx_hal_rcc.c ****   */
1072:Platform/STM32F4xx/drivers/STM32F4xx_HAL_Driver/Src/stm32f4xx_hal_rcc.c **** void HAL_RCC_NMI_IRQHandler(void)
1073:Platform/STM32F4xx/drivers/STM32F4xx_HAL_Driver/Src/stm32f4xx_hal_rcc.c **** {
1074:Platform/STM32F4xx/drivers/STM32F4xx_HAL_Driver/Src/stm32f4xx_hal_rcc.c ****   /* Check RCC CSSF flag  */
1075:Platform/STM32F4xx/drivers/STM32F4xx_HAL_Driver/Src/stm32f4xx_hal_rcc.c ****   if(__HAL_RCC_GET_IT(RCC_IT_CSS))
1076:Platform/STM32F4xx/drivers/STM32F4xx_HAL_Driver/Src/stm32f4xx_hal_rcc.c ****   {
1077:Platform/STM32F4xx/drivers/STM32F4xx_HAL_Driver/Src/stm32f4xx_hal_rcc.c ****     /* RCC Clock Security System interrupt user callback */
1078:Platform/STM32F4xx/drivers/STM32F4xx_HAL_Driver/Src/stm32f4xx_hal_rcc.c ****     HAL_RCC_CSSCallback();
1079:Platform/STM32F4xx/drivers/STM32F4xx_HAL_Driver/Src/stm32f4xx_hal_rcc.c **** 
1080:Platform/STM32F4xx/drivers/STM32F4xx_HAL_Driver/Src/stm32f4xx_hal_rcc.c ****     /* Clear RCC CSS pending bit */
1081:Platform/STM32F4xx/drivers/STM32F4xx_HAL_Driver/Src/stm32f4xx_hal_rcc.c ****     __HAL_RCC_CLEAR_IT(RCC_IT_CSS);
1082:Platform/STM32F4xx/drivers/STM32F4xx_HAL_Driver/Src/stm32f4xx_hal_rcc.c ****   }
1083:Platform/STM32F4xx/drivers/STM32F4xx_HAL_Driver/Src/stm32f4xx_hal_rcc.c **** }
1084:Platform/STM32F4xx/drivers/STM32F4xx_HAL_Driver/Src/stm32f4xx_hal_rcc.c **** 
1085:Platform/STM32F4xx/drivers/STM32F4xx_HAL_Driver/Src/stm32f4xx_hal_rcc.c **** /**
1086:Platform/STM32F4xx/drivers/STM32F4xx_HAL_Driver/Src/stm32f4xx_hal_rcc.c ****   * @brief  RCC Clock Security System interrupt callback
1087:Platform/STM32F4xx/drivers/STM32F4xx_HAL_Driver/Src/stm32f4xx_hal_rcc.c ****   * @retval None
1088:Platform/STM32F4xx/drivers/STM32F4xx_HAL_Driver/Src/stm32f4xx_hal_rcc.c ****   */
1089:Platform/STM32F4xx/drivers/STM32F4xx_HAL_Driver/Src/stm32f4xx_hal_rcc.c **** __weak void HAL_RCC_CSSCallback(void)
1090:Platform/STM32F4xx/drivers/STM32F4xx_HAL_Driver/Src/stm32f4xx_hal_rcc.c **** {
 1558              		.loc 1 1090 0
 1559              		.cfi_startproc
 1560              		@ args = 0, pretend = 0, frame = 0
 1561              		@ frame_needed = 0, uses_anonymous_args = 0
 1562              		@ link register save eliminated.
1091:Platform/STM32F4xx/drivers/STM32F4xx_HAL_Driver/Src/stm32f4xx_hal_rcc.c ****   /* NOTE : This function Should not be modified, when the callback is needed,
ARM GAS  /tmp/ccSv8R8q.s 			page 49


1092:Platform/STM32F4xx/drivers/STM32F4xx_HAL_Driver/Src/stm32f4xx_hal_rcc.c ****             the HAL_RCC_CSSCallback could be implemented in the user file
1093:Platform/STM32F4xx/drivers/STM32F4xx_HAL_Driver/Src/stm32f4xx_hal_rcc.c ****    */
1094:Platform/STM32F4xx/drivers/STM32F4xx_HAL_Driver/Src/stm32f4xx_hal_rcc.c **** }
 1563              		.loc 1 1094 0
 1564 0000 7047     		bx	lr
 1565              		.cfi_endproc
 1566              	.LFE139:
 1568              		.section	.text.HAL_RCC_NMI_IRQHandler,"ax",%progbits
 1569              		.align	1
 1570              		.global	HAL_RCC_NMI_IRQHandler
 1571              		.syntax unified
 1572              		.thumb
 1573              		.thumb_func
 1574              		.fpu fpv4-sp-d16
 1576              	HAL_RCC_NMI_IRQHandler:
 1577              	.LFB138:
1073:Platform/STM32F4xx/drivers/STM32F4xx_HAL_Driver/Src/stm32f4xx_hal_rcc.c ****   /* Check RCC CSSF flag  */
 1578              		.loc 1 1073 0
 1579              		.cfi_startproc
 1580              		@ args = 0, pretend = 0, frame = 0
 1581              		@ frame_needed = 0, uses_anonymous_args = 0
 1582 0000 08B5     		push	{r3, lr}
 1583              	.LCFI17:
 1584              		.cfi_def_cfa_offset 8
 1585              		.cfi_offset 3, -8
 1586              		.cfi_offset 14, -4
1075:Platform/STM32F4xx/drivers/STM32F4xx_HAL_Driver/Src/stm32f4xx_hal_rcc.c ****   {
 1587              		.loc 1 1075 0
 1588 0002 064B     		ldr	r3, .L181
 1589 0004 DB68     		ldr	r3, [r3, #12]
 1590 0006 13F0800F 		tst	r3, #128
 1591 000a 00D1     		bne	.L180
 1592              	.L177:
1083:Platform/STM32F4xx/drivers/STM32F4xx_HAL_Driver/Src/stm32f4xx_hal_rcc.c **** 
 1593              		.loc 1 1083 0
 1594 000c 08BD     		pop	{r3, pc}
 1595              	.L180:
1078:Platform/STM32F4xx/drivers/STM32F4xx_HAL_Driver/Src/stm32f4xx_hal_rcc.c **** 
 1596              		.loc 1 1078 0
 1597 000e FFF7FEFF 		bl	HAL_RCC_CSSCallback
 1598              	.LVL99:
1081:Platform/STM32F4xx/drivers/STM32F4xx_HAL_Driver/Src/stm32f4xx_hal_rcc.c ****   }
 1599              		.loc 1 1081 0
 1600 0012 034B     		ldr	r3, .L181+4
 1601 0014 8022     		movs	r2, #128
 1602 0016 1A70     		strb	r2, [r3]
1083:Platform/STM32F4xx/drivers/STM32F4xx_HAL_Driver/Src/stm32f4xx_hal_rcc.c **** 
 1603              		.loc 1 1083 0
 1604 0018 F8E7     		b	.L177
 1605              	.L182:
 1606 001a 00BF     		.align	2
 1607              	.L181:
 1608 001c 00380240 		.word	1073887232
 1609 0020 0E380240 		.word	1073887246
 1610              		.cfi_endproc
 1611              	.LFE138:
 1613              		.text
ARM GAS  /tmp/ccSv8R8q.s 			page 50


 1614              	.Letext0:
 1615              		.file 2 "/home/wumingju/Documents/aos/AliOS-Things/build/compiler/gcc-arm-none-eabi/Linux64/arm-no
 1616              		.file 3 "/home/wumingju/Documents/aos/AliOS-Things/build/compiler/gcc-arm-none-eabi/Linux64/arm-no
 1617              		.file 4 "Platform/STM32F4xx/drivers/CMSIS/Include/core_cm4.h"
 1618              		.file 5 "Platform/STM32F4xx/drivers/CMSIS/Device/ST/STM32F4xx/Include/system_stm32f4xx.h"
 1619              		.file 6 "Platform/STM32F4xx/drivers/CMSIS/Device/ST/STM32F4xx/Include/stm32f411xe.h"
 1620              		.file 7 "Platform/STM32F4xx/drivers/CMSIS/Device/ST/STM32F4xx/Include/stm32f4xx.h"
 1621              		.file 8 "/home/wumingju/Documents/aos/AliOS-Things/build/compiler/gcc-arm-none-eabi/Linux64/arm-no
 1622              		.file 9 "/home/wumingju/Documents/aos/AliOS-Things/build/compiler/gcc-arm-none-eabi/Linux64/arm-no
 1623              		.file 10 "/home/wumingju/Documents/aos/AliOS-Things/build/compiler/gcc-arm-none-eabi/Linux64/lib/g
 1624              		.file 11 "/home/wumingju/Documents/aos/AliOS-Things/build/compiler/gcc-arm-none-eabi/Linux64/arm-n
 1625              		.file 12 "Platform/STM32F4xx/drivers/STM32F4xx_HAL_Driver/Inc/stm32f4xx_hal_def.h"
 1626              		.file 13 "Platform/STM32F4xx/drivers/STM32F4xx_HAL_Driver/Inc/stm32f4xx_hal_rcc_ex.h"
 1627              		.file 14 "Platform/STM32F4xx/drivers/STM32F4xx_HAL_Driver/Inc/stm32f4xx_hal_rcc.h"
 1628              		.file 15 "Platform/STM32F4xx/drivers/STM32F4xx_HAL_Driver/Inc/stm32f4xx_hal_gpio.h"
 1629              		.file 16 "Platform/STM32F4xx/drivers/STM32F4xx_HAL_Driver/Inc/stm32f4xx_hal.h"
ARM GAS  /tmp/ccSv8R8q.s 			page 51

